ARM GAS  /tmp/ccndHvKY.s 			page 1


   1              		.cpu cortex-m3
   2              		.eabi_attribute 20, 1
   3              		.eabi_attribute 21, 1
   4              		.eabi_attribute 23, 3
   5              		.eabi_attribute 24, 1
   6              		.eabi_attribute 25, 1
   7              		.eabi_attribute 26, 1
   8              		.eabi_attribute 30, 1
   9              		.eabi_attribute 34, 1
  10              		.eabi_attribute 18, 4
  11              		.file	"aes.c"
  12              		.text
  13              	.Ltext0:
  14              		.cfi_sections	.debug_frame
  15              		.section	.text.xtime,"ax",%progbits
  16              		.align	1
  17              		.arch armv7-m
  18              		.syntax unified
  19              		.thumb
  20              		.thumb_func
  21              		.fpu softvfp
  23              	xtime:
  24              	.LVL0:
  25              	.LFB0:
  26              		.file 1 "Core/Src/aes.c"
   1:Core/Src/aes.c **** /**
   2:Core/Src/aes.c ****   * @file    aes.c
   3:Core/Src/aes.c ****   * @brief   AES-128 (encrypt + CMAC). Проверено на FIPS-197 и RFC 4493.
   4:Core/Src/aes.c ****   */
   5:Core/Src/aes.c **** #include "aes.h"
   6:Core/Src/aes.c **** #include <string.h>
   7:Core/Src/aes.c **** 
   8:Core/Src/aes.c **** static const uint8_t aes_sbox[256] = {
   9:Core/Src/aes.c **** 0x63,0x7c,0x77,0x7b,0xf2,0x6b,0x6f,0xc5,0x30,0x01,0x67,0x2b,0xfe,0xd7,0xab,0x76,
  10:Core/Src/aes.c **** 0xca,0x82,0xc9,0x7d,0xfa,0x59,0x47,0xf0,0xad,0xd4,0xa2,0xaf,0x9c,0xa4,0x72,0xc0,
  11:Core/Src/aes.c **** 0xb7,0xfd,0x93,0x26,0x36,0x3f,0xf7,0xcc,0x34,0xa5,0xe5,0xf1,0x71,0xd8,0x31,0x15,
  12:Core/Src/aes.c **** 0x04,0xc7,0x23,0xc3,0x18,0x96,0x05,0x9a,0x07,0x12,0x80,0xe2,0xeb,0x27,0xb2,0x75,
  13:Core/Src/aes.c **** 0x09,0x83,0x2c,0x1a,0x1b,0x6e,0x5a,0xa0,0x52,0x3b,0xd6,0xb3,0x29,0xe3,0x2f,0x84,
  14:Core/Src/aes.c **** 0x53,0xd1,0x00,0xed,0x20,0xfc,0xb1,0x5b,0x6a,0xcb,0xbe,0x39,0x4a,0x4c,0x58,0xcf,
  15:Core/Src/aes.c **** 0xd0,0xef,0xaa,0xfb,0x43,0x4d,0x33,0x85,0x45,0xf9,0x02,0x7f,0x50,0x3c,0x9f,0xa8,
  16:Core/Src/aes.c **** 0x51,0xa3,0x40,0x8f,0x92,0x9d,0x38,0xf5,0xbc,0xb6,0xda,0x21,0x10,0xff,0xf3,0xd2,
  17:Core/Src/aes.c **** 0xcd,0x0c,0x13,0xec,0x5f,0x97,0x44,0x17,0xc4,0xa7,0x7e,0x3d,0x64,0x5d,0x19,0x73,
  18:Core/Src/aes.c **** 0x60,0x81,0x4f,0xdc,0x22,0x2a,0x90,0x88,0x46,0xee,0xb8,0x14,0xde,0x5e,0x0b,0xdb,
  19:Core/Src/aes.c **** 0xe0,0x32,0x3a,0x0a,0x49,0x06,0x24,0x5c,0xc2,0xd3,0xac,0x62,0x91,0x95,0xe4,0x79,
  20:Core/Src/aes.c **** 0xe7,0xc8,0x37,0x6d,0x8d,0xd5,0x4e,0xa9,0x6c,0x56,0xf4,0xea,0x65,0x7a,0xae,0x08,
  21:Core/Src/aes.c **** 0xba,0x78,0x25,0x2e,0x1c,0xa6,0xb4,0xc6,0xe8,0xdd,0x74,0x1f,0x4b,0xbd,0x8b,0x8a,
  22:Core/Src/aes.c **** 0x70,0x3e,0xb5,0x66,0x48,0x03,0xf6,0x0e,0x61,0x35,0x57,0xb9,0x86,0xc1,0x1d,0x9e,
  23:Core/Src/aes.c **** 0xe1,0xf8,0x98,0x11,0x69,0xd9,0x8e,0x94,0x9b,0x1e,0x87,0xe9,0xce,0x55,0x28,0xdf,
  24:Core/Src/aes.c **** 0x8c,0xa1,0x89,0x0d,0xbf,0xe6,0x42,0x68,0x41,0x99,0x2d,0x0f,0xb0,0x54,0xbb,0x16
  25:Core/Src/aes.c **** };
  26:Core/Src/aes.c **** 
  27:Core/Src/aes.c **** static const uint8_t aes_rcon[11] = {
  28:Core/Src/aes.c **** 0x00,0x01,0x02,0x04,0x08,0x10,0x20,0x40,0x80,0x1b,0x36
  29:Core/Src/aes.c **** };
  30:Core/Src/aes.c **** 
  31:Core/Src/aes.c **** /* Умножение на 2 в поле GF(2^8) */
  32:Core/Src/aes.c **** static uint8_t xtime(uint8_t x)
ARM GAS  /tmp/ccndHvKY.s 			page 2


  33:Core/Src/aes.c **** {
  27              		.loc 1 33 1 view -0
  28              		.cfi_startproc
  29              		@ args = 0, pretend = 0, frame = 0
  30              		@ frame_needed = 0, uses_anonymous_args = 0
  31              		@ link register save eliminated.
  34:Core/Src/aes.c ****     return (uint8_t)((x << 1) ^ ((x >> 7) * 0x1b));
  32              		.loc 1 34 5 view .LVU1
  33              		.loc 1 34 31 is_stmt 0 view .LVU2
  34 0000 C309     		lsrs	r3, r0, #7
  35 0002 03EB4303 		add	r3, r3, r3, lsl #1
  36 0006 03EBC303 		add	r3, r3, r3, lsl #3
  37 000a 83EA4000 		eor	r0, r3, r0, lsl #1
  38              	.LVL1:
  35:Core/Src/aes.c **** }
  39              		.loc 1 35 1 view .LVU3
  40 000e C0B2     		uxtb	r0, r0
  41 0010 7047     		bx	lr
  42              		.cfi_endproc
  43              	.LFE0:
  45              		.section	.text.leftshift_onebit,"ax",%progbits
  46              		.align	1
  47              		.syntax unified
  48              		.thumb
  49              		.thumb_func
  50              		.fpu softvfp
  52              	leftshift_onebit:
  53              	.LVL2:
  54              	.LFB3:
  36:Core/Src/aes.c **** 
  37:Core/Src/aes.c **** void aes_key_expand(const uint8_t key[16], uint8_t rk[176])
  38:Core/Src/aes.c **** {
  39:Core/Src/aes.c ****     memcpy(rk, key, 16);
  40:Core/Src/aes.c ****     uint8_t t[4];
  41:Core/Src/aes.c ****     for (int i = 16; i < 176; i += 4) {
  42:Core/Src/aes.c ****         memcpy(t, rk + i - 4, 4);
  43:Core/Src/aes.c ****         if (i % 16 == 0) {
  44:Core/Src/aes.c ****             uint8_t tmp = t[0];
  45:Core/Src/aes.c ****             t[0] = aes_sbox[t[1]] ^ aes_rcon[i / 16];
  46:Core/Src/aes.c ****             t[1] = aes_sbox[t[2]];
  47:Core/Src/aes.c ****             t[2] = aes_sbox[t[3]];
  48:Core/Src/aes.c ****             t[3] = aes_sbox[tmp];
  49:Core/Src/aes.c ****         }
  50:Core/Src/aes.c ****         for (int j = 0; j < 4; j++)
  51:Core/Src/aes.c ****             rk[i + j] = rk[i - 16 + j] ^ t[j];
  52:Core/Src/aes.c ****     }
  53:Core/Src/aes.c **** }
  54:Core/Src/aes.c **** 
  55:Core/Src/aes.c **** void aes_encrypt_block(const uint8_t rk[176], uint8_t s[16])
  56:Core/Src/aes.c **** {
  57:Core/Src/aes.c ****     /* AddRoundKey 0 */
  58:Core/Src/aes.c ****     for (int i = 0; i < 16; i++) s[i] ^= rk[i];
  59:Core/Src/aes.c **** 
  60:Core/Src/aes.c ****     for (int round = 1; round < 10; round++) {
  61:Core/Src/aes.c ****         /* SubBytes */
  62:Core/Src/aes.c ****         for (int i = 0; i < 16; i++) s[i] = aes_sbox[s[i]];
  63:Core/Src/aes.c ****         /* ShiftRows */
ARM GAS  /tmp/ccndHvKY.s 			page 3


  64:Core/Src/aes.c ****         uint8_t t;
  65:Core/Src/aes.c ****         t = s[1];  s[1] = s[5];  s[5] = s[9];   s[9]  = s[13]; s[13] = t;
  66:Core/Src/aes.c ****         t = s[2];  s[2] = s[10]; s[10] = t;  t = s[6]; s[6] = s[14]; s[14] = t;
  67:Core/Src/aes.c ****         t = s[15]; s[15] = s[11]; s[11] = s[7]; s[7] = s[3];  s[3]  = t;
  68:Core/Src/aes.c ****         /* MixColumns */
  69:Core/Src/aes.c ****         for (int c = 0; c < 4; c++) {
  70:Core/Src/aes.c ****             uint8_t *col = s + c * 4;
  71:Core/Src/aes.c ****             uint8_t a0 = col[0], a1 = col[1], a2 = col[2], a3 = col[3];
  72:Core/Src/aes.c ****             uint8_t h = a0 ^ a1 ^ a2 ^ a3;
  73:Core/Src/aes.c ****             col[0] ^= h ^ xtime(a0 ^ a1);
  74:Core/Src/aes.c ****             col[1] ^= h ^ xtime(a1 ^ a2);
  75:Core/Src/aes.c ****             col[2] ^= h ^ xtime(a2 ^ a3);
  76:Core/Src/aes.c ****             col[3] ^= h ^ xtime(a3 ^ a0);
  77:Core/Src/aes.c ****         }
  78:Core/Src/aes.c ****         /* AddRoundKey */
  79:Core/Src/aes.c ****         for (int i = 0; i < 16; i++) s[i] ^= rk[round * 16 + i];
  80:Core/Src/aes.c ****     }
  81:Core/Src/aes.c ****     /* финальный раунд (без MixColumns) */
  82:Core/Src/aes.c ****     for (int i = 0; i < 16; i++) s[i] = aes_sbox[s[i]];
  83:Core/Src/aes.c ****     uint8_t t;
  84:Core/Src/aes.c ****     t = s[1];  s[1] = s[5];  s[5] = s[9];   s[9]  = s[13]; s[13] = t;
  85:Core/Src/aes.c ****     t = s[2];  s[2] = s[10]; s[10] = t;  t = s[6]; s[6] = s[14]; s[14] = t;
  86:Core/Src/aes.c ****     t = s[15]; s[15] = s[11]; s[11] = s[7]; s[7] = s[3];  s[3]  = t;
  87:Core/Src/aes.c ****     for (int i = 0; i < 16; i++) s[i] ^= rk[160 + i];
  88:Core/Src/aes.c **** }
  89:Core/Src/aes.c **** 
  90:Core/Src/aes.c **** /* --- CMAC --- */
  91:Core/Src/aes.c **** 
  92:Core/Src/aes.c **** static void leftshift_onebit(const uint8_t *in, uint8_t *out)
  93:Core/Src/aes.c **** {
  55              		.loc 1 93 1 is_stmt 1 view -0
  56              		.cfi_startproc
  57              		@ args = 0, pretend = 0, frame = 0
  58              		@ frame_needed = 0, uses_anonymous_args = 0
  59              		@ link register save eliminated.
  94:Core/Src/aes.c ****     uint8_t overflow = 0;
  60              		.loc 1 94 5 view .LVU5
  95:Core/Src/aes.c ****     for (int i = 15; i >= 0; i--) {
  61              		.loc 1 95 5 view .LVU6
  62              	.LBB2:
  63              		.loc 1 95 10 view .LVU7
  64              		.loc 1 95 14 is_stmt 0 view .LVU8
  65 0000 0F23     		movs	r3, #15
  66              	.LBE2:
  94:Core/Src/aes.c ****     uint8_t overflow = 0;
  67              		.loc 1 94 13 view .LVU9
  68 0002 0022     		movs	r2, #0
  69              	.LBB3:
  70              		.loc 1 95 5 view .LVU10
  71 0004 07E0     		b	.L3
  72              	.LVL3:
  73              	.L4:
  96:Core/Src/aes.c ****         out[i] = (uint8_t)((in[i] << 1) | overflow);
  74              		.loc 1 96 9 is_stmt 1 discriminator 3 view .LVU11
  75              		.loc 1 96 31 is_stmt 0 discriminator 3 view .LVU12
  76 0006 10F803C0 		ldrb	ip, [r0, r3]	@ zero_extendqisi2
  77              		.loc 1 96 41 discriminator 3 view .LVU13
ARM GAS  /tmp/ccndHvKY.s 			page 4


  78 000a 42EA4C02 		orr	r2, r2, ip, lsl #1
  79              	.LVL4:
  80              		.loc 1 96 16 discriminator 3 view .LVU14
  81 000e CA54     		strb	r2, [r1, r3]
  97:Core/Src/aes.c ****         overflow = (in[i] & 0x80) ? 1 : 0;
  82              		.loc 1 97 9 is_stmt 1 discriminator 3 view .LVU15
  83              		.loc 1 97 39 is_stmt 0 discriminator 3 view .LVU16
  84 0010 C25C     		ldrb	r2, [r0, r3]	@ zero_extendqisi2
  85              		.loc 1 97 18 discriminator 3 view .LVU17
  86 0012 D209     		lsrs	r2, r2, #7
  87              	.LVL5:
  95:Core/Src/aes.c ****     for (int i = 15; i >= 0; i--) {
  88              		.loc 1 95 30 is_stmt 1 discriminator 3 view .LVU18
  95:Core/Src/aes.c ****     for (int i = 15; i >= 0; i--) {
  89              		.loc 1 95 31 is_stmt 0 discriminator 3 view .LVU19
  90 0014 013B     		subs	r3, r3, #1
  91              	.LVL6:
  92              	.L3:
  95:Core/Src/aes.c ****     for (int i = 15; i >= 0; i--) {
  93              		.loc 1 95 22 is_stmt 1 discriminator 1 view .LVU20
  95:Core/Src/aes.c ****     for (int i = 15; i >= 0; i--) {
  94              		.loc 1 95 5 is_stmt 0 discriminator 1 view .LVU21
  95 0016 002B     		cmp	r3, #0
  96 0018 F5DA     		bge	.L4
  97              	.LBE3:
  98:Core/Src/aes.c ****     }
  99:Core/Src/aes.c **** }
  98              		.loc 1 99 1 view .LVU22
  99 001a 7047     		bx	lr
 100              		.cfi_endproc
 101              	.LFE3:
 103              		.section	.text.aes_key_expand,"ax",%progbits
 104              		.align	1
 105              		.global	aes_key_expand
 106              		.syntax unified
 107              		.thumb
 108              		.thumb_func
 109              		.fpu softvfp
 111              	aes_key_expand:
 112              	.LVL7:
 113              	.LFB1:
  38:Core/Src/aes.c ****     memcpy(rk, key, 16);
 114              		.loc 1 38 1 is_stmt 1 view -0
 115              		.cfi_startproc
 116              		@ args = 0, pretend = 0, frame = 8
 117              		@ frame_needed = 0, uses_anonymous_args = 0
  38:Core/Src/aes.c ****     memcpy(rk, key, 16);
 118              		.loc 1 38 1 is_stmt 0 view .LVU24
 119 0000 10B5     		push	{r4, lr}
 120              	.LCFI0:
 121              		.cfi_def_cfa_offset 8
 122              		.cfi_offset 4, -8
 123              		.cfi_offset 14, -4
 124 0002 82B0     		sub	sp, sp, #8
 125              	.LCFI1:
 126              		.cfi_def_cfa_offset 16
  39:Core/Src/aes.c ****     uint8_t t[4];
ARM GAS  /tmp/ccndHvKY.s 			page 5


 127              		.loc 1 39 5 is_stmt 1 view .LVU25
 128 0004 D0F800C0 		ldr	ip, [r0]	@ unaligned
 129 0008 4468     		ldr	r4, [r0, #4]	@ unaligned
 130 000a 8268     		ldr	r2, [r0, #8]	@ unaligned
 131 000c C368     		ldr	r3, [r0, #12]	@ unaligned
 132 000e C1F800C0 		str	ip, [r1]	@ unaligned
 133 0012 4C60     		str	r4, [r1, #4]	@ unaligned
 134 0014 8A60     		str	r2, [r1, #8]	@ unaligned
 135 0016 CB60     		str	r3, [r1, #12]	@ unaligned
  40:Core/Src/aes.c ****     for (int i = 16; i < 176; i += 4) {
 136              		.loc 1 40 5 view .LVU26
  41:Core/Src/aes.c ****         memcpy(t, rk + i - 4, 4);
 137              		.loc 1 41 5 view .LVU27
 138              	.LBB4:
  41:Core/Src/aes.c ****         memcpy(t, rk + i - 4, 4);
 139              		.loc 1 41 10 view .LVU28
 140              	.LVL8:
  41:Core/Src/aes.c ****         memcpy(t, rk + i - 4, 4);
 141              		.loc 1 41 14 is_stmt 0 view .LVU29
 142 0018 1020     		movs	r0, #16
 143              	.LVL9:
  41:Core/Src/aes.c ****         memcpy(t, rk + i - 4, 4);
 144              		.loc 1 41 5 view .LVU30
 145 001a 16E0     		b	.L6
 146              	.LVL10:
 147              	.L14:
 148              	.LBB5:
  45:Core/Src/aes.c ****             t[1] = aes_sbox[t[2]];
 149              		.loc 1 45 48 view .LVU31
 150 001c 00F10F02 		add	r2, r0, #15
 151 0020 23E0     		b	.L8
 152              	.LVL11:
 153              	.L10:
  45:Core/Src/aes.c ****             t[1] = aes_sbox[t[2]];
 154              		.loc 1 45 48 view .LVU32
 155              	.LBE5:
 156              	.LBB6:
  51:Core/Src/aes.c ****     }
 157              		.loc 1 51 13 is_stmt 1 discriminator 3 view .LVU33
  51:Core/Src/aes.c ****     }
 158              		.loc 1 51 30 is_stmt 0 discriminator 3 view .LVU34
 159 0022 A0F11002 		sub	r2, r0, #16
  51:Core/Src/aes.c ****     }
 160              		.loc 1 51 35 discriminator 3 view .LVU35
 161 0026 1A44     		add	r2, r2, r3
  51:Core/Src/aes.c ****     }
 162              		.loc 1 51 27 discriminator 3 view .LVU36
 163 0028 8A5C     		ldrb	r2, [r1, r2]	@ zero_extendqisi2
  51:Core/Src/aes.c ****     }
 164              		.loc 1 51 43 discriminator 3 view .LVU37
 165 002a 03F10804 		add	r4, r3, #8
 166 002e 0DEB040C 		add	ip, sp, r4
 167 0032 1CF804EC 		ldrb	lr, [ip, #-4]	@ zero_extendqisi2
  51:Core/Src/aes.c ****     }
 168              		.loc 1 51 18 discriminator 3 view .LVU38
 169 0036 00EB030C 		add	ip, r0, r3
  51:Core/Src/aes.c ****     }
ARM GAS  /tmp/ccndHvKY.s 			page 6


 170              		.loc 1 51 23 discriminator 3 view .LVU39
 171 003a 82EA0E02 		eor	r2, r2, lr
 172 003e 01F80C20 		strb	r2, [r1, ip]
  50:Core/Src/aes.c ****             rk[i + j] = rk[i - 16 + j] ^ t[j];
 173              		.loc 1 50 32 is_stmt 1 discriminator 3 view .LVU40
  50:Core/Src/aes.c ****             rk[i + j] = rk[i - 16 + j] ^ t[j];
 174              		.loc 1 50 33 is_stmt 0 discriminator 3 view .LVU41
 175 0042 0133     		adds	r3, r3, #1
 176              	.LVL12:
 177              	.L9:
  50:Core/Src/aes.c ****             rk[i + j] = rk[i - 16 + j] ^ t[j];
 178              		.loc 1 50 25 is_stmt 1 discriminator 1 view .LVU42
  50:Core/Src/aes.c ****             rk[i + j] = rk[i - 16 + j] ^ t[j];
 179              		.loc 1 50 9 is_stmt 0 discriminator 1 view .LVU43
 180 0044 032B     		cmp	r3, #3
 181 0046 ECDD     		ble	.L10
 182              	.LBE6:
  41:Core/Src/aes.c ****         memcpy(t, rk + i - 4, 4);
 183              		.loc 1 41 31 is_stmt 1 discriminator 2 view .LVU44
  41:Core/Src/aes.c ****         memcpy(t, rk + i - 4, 4);
 184              		.loc 1 41 33 is_stmt 0 discriminator 2 view .LVU45
 185 0048 0430     		adds	r0, r0, #4
 186              	.LVL13:
 187              	.L6:
  41:Core/Src/aes.c ****         memcpy(t, rk + i - 4, 4);
 188              		.loc 1 41 22 is_stmt 1 discriminator 1 view .LVU46
  41:Core/Src/aes.c ****         memcpy(t, rk + i - 4, 4);
 189              		.loc 1 41 5 is_stmt 0 discriminator 1 view .LVU47
 190 004a AF28     		cmp	r0, #175
 191 004c 27DC     		bgt	.L13
  42:Core/Src/aes.c ****         if (i % 16 == 0) {
 192              		.loc 1 42 9 is_stmt 1 view .LVU48
  42:Core/Src/aes.c ****         if (i % 16 == 0) {
 193              		.loc 1 42 26 is_stmt 0 view .LVU49
 194 004e 031F     		subs	r3, r0, #4
 195 0050 CB58     		ldr	r3, [r1, r3]	@ unaligned
  42:Core/Src/aes.c ****         if (i % 16 == 0) {
 196              		.loc 1 42 9 view .LVU50
 197 0052 0193     		str	r3, [sp, #4]
  43:Core/Src/aes.c ****             uint8_t tmp = t[0];
 198              		.loc 1 43 9 is_stmt 1 view .LVU51
  43:Core/Src/aes.c ****             uint8_t tmp = t[0];
 199              		.loc 1 43 12 is_stmt 0 view .LVU52
 200 0054 10F00F0F 		tst	r0, #15
 201 0058 1FD1     		bne	.L7
 202              	.LBB7:
  44:Core/Src/aes.c ****             t[0] = aes_sbox[t[1]] ^ aes_rcon[i / 16];
 203              		.loc 1 44 13 is_stmt 1 view .LVU53
 204              	.LVL14:
  45:Core/Src/aes.c ****             t[1] = aes_sbox[t[2]];
 205              		.loc 1 45 13 view .LVU54
  45:Core/Src/aes.c ****             t[1] = aes_sbox[t[2]];
 206              		.loc 1 45 30 is_stmt 0 view .LVU55
 207 005a C3F30722 		ubfx	r2, r3, #8, #8
  45:Core/Src/aes.c ****             t[1] = aes_sbox[t[2]];
 208              		.loc 1 45 28 view .LVU56
 209 005e 114C     		ldr	r4, .L15
ARM GAS  /tmp/ccndHvKY.s 			page 7


 210 0060 14F802C0 		ldrb	ip, [r4, r2]	@ zero_extendqisi2
  45:Core/Src/aes.c ****             t[1] = aes_sbox[t[2]];
 211              		.loc 1 45 48 view .LVU57
 212 0064 0246     		mov	r2, r0
 213 0066 0028     		cmp	r0, #0
 214 0068 D8DB     		blt	.L14
 215              	.L8:
  45:Core/Src/aes.c ****             t[1] = aes_sbox[t[2]];
 216              		.loc 1 45 48 view .LVU58
 217 006a 1211     		asrs	r2, r2, #4
  45:Core/Src/aes.c ****             t[1] = aes_sbox[t[2]];
 218              		.loc 1 45 45 view .LVU59
 219 006c 0E4C     		ldr	r4, .L15+4
 220 006e A25C     		ldrb	r2, [r4, r2]	@ zero_extendqisi2
  45:Core/Src/aes.c ****             t[1] = aes_sbox[t[2]];
 221              		.loc 1 45 18 view .LVU60
 222 0070 8CEA0202 		eor	r2, ip, r2
 223 0074 8DF80420 		strb	r2, [sp, #4]
  46:Core/Src/aes.c ****             t[2] = aes_sbox[t[3]];
 224              		.loc 1 46 13 is_stmt 1 view .LVU61
  46:Core/Src/aes.c ****             t[2] = aes_sbox[t[3]];
 225              		.loc 1 46 30 is_stmt 0 view .LVU62
 226 0078 C3F3074C 		ubfx	ip, r3, #16, #8
  46:Core/Src/aes.c ****             t[2] = aes_sbox[t[3]];
 227              		.loc 1 46 28 view .LVU63
 228 007c 094A     		ldr	r2, .L15
 229 007e 12F80CC0 		ldrb	ip, [r2, ip]	@ zero_extendqisi2
  46:Core/Src/aes.c ****             t[2] = aes_sbox[t[3]];
 230              		.loc 1 46 18 view .LVU64
 231 0082 8DF805C0 		strb	ip, [sp, #5]
  47:Core/Src/aes.c ****             t[3] = aes_sbox[tmp];
 232              		.loc 1 47 13 is_stmt 1 view .LVU65
  47:Core/Src/aes.c ****             t[3] = aes_sbox[tmp];
 233              		.loc 1 47 30 is_stmt 0 view .LVU66
 234 0086 4FEA136C 		lsr	ip, r3, #24
  47:Core/Src/aes.c ****             t[3] = aes_sbox[tmp];
 235              		.loc 1 47 28 view .LVU67
 236 008a 12F80CC0 		ldrb	ip, [r2, ip]	@ zero_extendqisi2
  47:Core/Src/aes.c ****             t[3] = aes_sbox[tmp];
 237              		.loc 1 47 18 view .LVU68
 238 008e 8DF806C0 		strb	ip, [sp, #6]
  48:Core/Src/aes.c ****         }
 239              		.loc 1 48 13 is_stmt 1 view .LVU69
  48:Core/Src/aes.c ****         }
 240              		.loc 1 48 28 is_stmt 0 view .LVU70
 241 0092 DBB2     		uxtb	r3, r3
  48:Core/Src/aes.c ****         }
 242              		.loc 1 48 28 view .LVU71
 243 0094 D35C     		ldrb	r3, [r2, r3]	@ zero_extendqisi2
 244              	.LVL15:
  48:Core/Src/aes.c ****         }
 245              		.loc 1 48 18 view .LVU72
 246 0096 8DF80730 		strb	r3, [sp, #7]
 247              	.LVL16:
 248              	.L7:
  48:Core/Src/aes.c ****         }
 249              		.loc 1 48 18 view .LVU73
ARM GAS  /tmp/ccndHvKY.s 			page 8


 250              	.LBE7:
 251              	.LBE4:
  38:Core/Src/aes.c ****     memcpy(rk, key, 16);
 252              		.loc 1 38 1 discriminator 1 view .LVU74
 253 009a 0023     		movs	r3, #0
 254 009c D2E7     		b	.L9
 255              	.L13:
  53:Core/Src/aes.c **** 
 256              		.loc 1 53 1 view .LVU75
 257 009e 02B0     		add	sp, sp, #8
 258              	.LCFI2:
 259              		.cfi_def_cfa_offset 8
 260              		@ sp needed
 261 00a0 10BD     		pop	{r4, pc}
 262              	.L16:
 263 00a2 00BF     		.align	2
 264              	.L15:
 265 00a4 00000000 		.word	.LANCHOR0
 266 00a8 00000000 		.word	.LANCHOR1
 267              		.cfi_endproc
 268              	.LFE1:
 270              		.section	.text.aes_encrypt_block,"ax",%progbits
 271              		.align	1
 272              		.global	aes_encrypt_block
 273              		.syntax unified
 274              		.thumb
 275              		.thumb_func
 276              		.fpu softvfp
 278              	aes_encrypt_block:
 279              	.LVL17:
 280              	.LFB2:
  56:Core/Src/aes.c ****     /* AddRoundKey 0 */
 281              		.loc 1 56 1 is_stmt 1 view -0
 282              		.cfi_startproc
 283              		@ args = 0, pretend = 0, frame = 8
 284              		@ frame_needed = 0, uses_anonymous_args = 0
  56:Core/Src/aes.c ****     /* AddRoundKey 0 */
 285              		.loc 1 56 1 is_stmt 0 view .LVU77
 286 0000 2DE9F04F 		push	{r4, r5, r6, r7, r8, r9, r10, fp, lr}
 287              	.LCFI3:
 288              		.cfi_def_cfa_offset 36
 289              		.cfi_offset 4, -36
 290              		.cfi_offset 5, -32
 291              		.cfi_offset 6, -28
 292              		.cfi_offset 7, -24
 293              		.cfi_offset 8, -20
 294              		.cfi_offset 9, -16
 295              		.cfi_offset 10, -12
 296              		.cfi_offset 11, -8
 297              		.cfi_offset 14, -4
 298 0004 83B0     		sub	sp, sp, #12
 299              	.LCFI4:
 300              		.cfi_def_cfa_offset 48
 301 0006 8246     		mov	r10, r0
 302 0008 0C46     		mov	r4, r1
  58:Core/Src/aes.c **** 
 303              		.loc 1 58 5 is_stmt 1 view .LVU78
ARM GAS  /tmp/ccndHvKY.s 			page 9


 304              	.LBB8:
  58:Core/Src/aes.c **** 
 305              		.loc 1 58 10 view .LVU79
 306              	.LVL18:
  58:Core/Src/aes.c **** 
 307              		.loc 1 58 14 is_stmt 0 view .LVU80
 308 000a 0023     		movs	r3, #0
  58:Core/Src/aes.c **** 
 309              		.loc 1 58 5 view .LVU81
 310 000c 05E0     		b	.L18
 311              	.LVL19:
 312              	.L19:
  58:Core/Src/aes.c **** 
 313              		.loc 1 58 34 is_stmt 1 discriminator 3 view .LVU82
  58:Core/Src/aes.c **** 
 314              		.loc 1 58 44 is_stmt 0 discriminator 3 view .LVU83
 315 000e 1AF80320 		ldrb	r2, [r10, r3]	@ zero_extendqisi2
  58:Core/Src/aes.c **** 
 316              		.loc 1 58 39 discriminator 3 view .LVU84
 317 0012 E15C     		ldrb	r1, [r4, r3]	@ zero_extendqisi2
 318 0014 4A40     		eors	r2, r2, r1
 319 0016 E254     		strb	r2, [r4, r3]
  58:Core/Src/aes.c **** 
 320              		.loc 1 58 29 is_stmt 1 discriminator 3 view .LVU85
  58:Core/Src/aes.c **** 
 321              		.loc 1 58 30 is_stmt 0 discriminator 3 view .LVU86
 322 0018 0133     		adds	r3, r3, #1
 323              	.LVL20:
 324              	.L18:
  58:Core/Src/aes.c **** 
 325              		.loc 1 58 21 is_stmt 1 discriminator 1 view .LVU87
  58:Core/Src/aes.c **** 
 326              		.loc 1 58 5 is_stmt 0 discriminator 1 view .LVU88
 327 001a 0F2B     		cmp	r3, #15
 328 001c F7DD     		ble	.L19
 329              	.LBE8:
 330              	.LBB9:
  60:Core/Src/aes.c ****         /* SubBytes */
 331              		.loc 1 60 14 view .LVU89
 332 001e 4FF0010B 		mov	fp, #1
 333 0022 6AE0     		b	.L20
 334              	.LVL21:
 335              	.L21:
 336              	.LBB10:
 337              	.LBB11:
  62:Core/Src/aes.c ****         /* ShiftRows */
 338              		.loc 1 62 38 is_stmt 1 discriminator 3 view .LVU90
  62:Core/Src/aes.c ****         /* ShiftRows */
 339              		.loc 1 62 55 is_stmt 0 discriminator 3 view .LVU91
 340 0024 E25C     		ldrb	r2, [r4, r3]	@ zero_extendqisi2
  62:Core/Src/aes.c ****         /* ShiftRows */
 341              		.loc 1 62 53 discriminator 3 view .LVU92
 342 0026 4F49     		ldr	r1, .L34
 343 0028 8A5C     		ldrb	r2, [r1, r2]	@ zero_extendqisi2
  62:Core/Src/aes.c ****         /* ShiftRows */
 344              		.loc 1 62 43 discriminator 3 view .LVU93
 345 002a E254     		strb	r2, [r4, r3]
ARM GAS  /tmp/ccndHvKY.s 			page 10


  62:Core/Src/aes.c ****         /* ShiftRows */
 346              		.loc 1 62 33 is_stmt 1 discriminator 3 view .LVU94
  62:Core/Src/aes.c ****         /* ShiftRows */
 347              		.loc 1 62 34 is_stmt 0 discriminator 3 view .LVU95
 348 002c 0133     		adds	r3, r3, #1
 349              	.LVL22:
 350              	.L26:
  62:Core/Src/aes.c ****         /* ShiftRows */
 351              		.loc 1 62 25 is_stmt 1 discriminator 1 view .LVU96
  62:Core/Src/aes.c ****         /* ShiftRows */
 352              		.loc 1 62 9 is_stmt 0 discriminator 1 view .LVU97
 353 002e 0F2B     		cmp	r3, #15
 354 0030 F8DD     		ble	.L21
 355              	.LBE11:
  64:Core/Src/aes.c ****         t = s[1];  s[1] = s[5];  s[5] = s[9];   s[9]  = s[13]; s[13] = t;
 356              		.loc 1 64 9 is_stmt 1 view .LVU98
  65:Core/Src/aes.c ****         t = s[2];  s[2] = s[10]; s[10] = t;  t = s[6]; s[6] = s[14]; s[14] = t;
 357              		.loc 1 65 9 view .LVU99
  65:Core/Src/aes.c ****         t = s[2];  s[2] = s[10]; s[10] = t;  t = s[6]; s[6] = s[14]; s[14] = t;
 358              		.loc 1 65 11 is_stmt 0 view .LVU100
 359 0032 6378     		ldrb	r3, [r4, #1]	@ zero_extendqisi2
 360              	.LVL23:
  65:Core/Src/aes.c ****         t = s[2];  s[2] = s[10]; s[10] = t;  t = s[6]; s[6] = s[14]; s[14] = t;
 361              		.loc 1 65 20 is_stmt 1 view .LVU101
  65:Core/Src/aes.c ****         t = s[2];  s[2] = s[10]; s[10] = t;  t = s[6]; s[6] = s[14]; s[14] = t;
 362              		.loc 1 65 25 is_stmt 0 view .LVU102
 363 0034 6279     		ldrb	r2, [r4, #5]	@ zero_extendqisi2
 364 0036 6270     		strb	r2, [r4, #1]
  65:Core/Src/aes.c ****         t = s[2];  s[2] = s[10]; s[10] = t;  t = s[6]; s[6] = s[14]; s[14] = t;
 365              		.loc 1 65 34 is_stmt 1 view .LVU103
  65:Core/Src/aes.c ****         t = s[2];  s[2] = s[10]; s[10] = t;  t = s[6]; s[6] = s[14]; s[14] = t;
 366              		.loc 1 65 39 is_stmt 0 view .LVU104
 367 0038 627A     		ldrb	r2, [r4, #9]	@ zero_extendqisi2
 368 003a 6271     		strb	r2, [r4, #5]
  65:Core/Src/aes.c ****         t = s[2];  s[2] = s[10]; s[10] = t;  t = s[6]; s[6] = s[14]; s[14] = t;
 369              		.loc 1 65 49 is_stmt 1 view .LVU105
  65:Core/Src/aes.c ****         t = s[2];  s[2] = s[10]; s[10] = t;  t = s[6]; s[6] = s[14]; s[14] = t;
 370              		.loc 1 65 55 is_stmt 0 view .LVU106
 371 003c 627B     		ldrb	r2, [r4, #13]	@ zero_extendqisi2
 372 003e 6272     		strb	r2, [r4, #9]
  65:Core/Src/aes.c ****         t = s[2];  s[2] = s[10]; s[10] = t;  t = s[6]; s[6] = s[14]; s[14] = t;
 373              		.loc 1 65 64 is_stmt 1 view .LVU107
  65:Core/Src/aes.c ****         t = s[2];  s[2] = s[10]; s[10] = t;  t = s[6]; s[6] = s[14]; s[14] = t;
 374              		.loc 1 65 70 is_stmt 0 view .LVU108
 375 0040 6373     		strb	r3, [r4, #13]
  66:Core/Src/aes.c ****         t = s[15]; s[15] = s[11]; s[11] = s[7]; s[7] = s[3];  s[3]  = t;
 376              		.loc 1 66 9 is_stmt 1 view .LVU109
  66:Core/Src/aes.c ****         t = s[15]; s[15] = s[11]; s[11] = s[7]; s[7] = s[3];  s[3]  = t;
 377              		.loc 1 66 11 is_stmt 0 view .LVU110
 378 0042 A378     		ldrb	r3, [r4, #2]	@ zero_extendqisi2
 379              	.LVL24:
  66:Core/Src/aes.c ****         t = s[15]; s[15] = s[11]; s[11] = s[7]; s[7] = s[3];  s[3]  = t;
 380              		.loc 1 66 20 is_stmt 1 view .LVU111
  66:Core/Src/aes.c ****         t = s[15]; s[15] = s[11]; s[11] = s[7]; s[7] = s[3];  s[3]  = t;
 381              		.loc 1 66 25 is_stmt 0 view .LVU112
 382 0044 A27A     		ldrb	r2, [r4, #10]	@ zero_extendqisi2
 383 0046 A270     		strb	r2, [r4, #2]
ARM GAS  /tmp/ccndHvKY.s 			page 11


  66:Core/Src/aes.c ****         t = s[15]; s[15] = s[11]; s[11] = s[7]; s[7] = s[3];  s[3]  = t;
 384              		.loc 1 66 34 is_stmt 1 view .LVU113
  66:Core/Src/aes.c ****         t = s[15]; s[15] = s[11]; s[11] = s[7]; s[7] = s[3];  s[3]  = t;
 385              		.loc 1 66 40 is_stmt 0 view .LVU114
 386 0048 A372     		strb	r3, [r4, #10]
  66:Core/Src/aes.c ****         t = s[15]; s[15] = s[11]; s[11] = s[7]; s[7] = s[3];  s[3]  = t;
 387              		.loc 1 66 46 is_stmt 1 view .LVU115
  66:Core/Src/aes.c ****         t = s[15]; s[15] = s[11]; s[11] = s[7]; s[7] = s[3];  s[3]  = t;
 388              		.loc 1 66 48 is_stmt 0 view .LVU116
 389 004a A379     		ldrb	r3, [r4, #6]	@ zero_extendqisi2
 390              	.LVL25:
  66:Core/Src/aes.c ****         t = s[15]; s[15] = s[11]; s[11] = s[7]; s[7] = s[3];  s[3]  = t;
 391              		.loc 1 66 56 is_stmt 1 view .LVU117
  66:Core/Src/aes.c ****         t = s[15]; s[15] = s[11]; s[11] = s[7]; s[7] = s[3];  s[3]  = t;
 392              		.loc 1 66 61 is_stmt 0 view .LVU118
 393 004c A27B     		ldrb	r2, [r4, #14]	@ zero_extendqisi2
 394 004e A271     		strb	r2, [r4, #6]
  66:Core/Src/aes.c ****         t = s[15]; s[15] = s[11]; s[11] = s[7]; s[7] = s[3];  s[3]  = t;
 395              		.loc 1 66 70 is_stmt 1 view .LVU119
  66:Core/Src/aes.c ****         t = s[15]; s[15] = s[11]; s[11] = s[7]; s[7] = s[3];  s[3]  = t;
 396              		.loc 1 66 76 is_stmt 0 view .LVU120
 397 0050 A373     		strb	r3, [r4, #14]
  67:Core/Src/aes.c ****         /* MixColumns */
 398              		.loc 1 67 9 is_stmt 1 view .LVU121
  67:Core/Src/aes.c ****         /* MixColumns */
 399              		.loc 1 67 11 is_stmt 0 view .LVU122
 400 0052 E37B     		ldrb	r3, [r4, #15]	@ zero_extendqisi2
 401              	.LVL26:
  67:Core/Src/aes.c ****         /* MixColumns */
 402              		.loc 1 67 20 is_stmt 1 view .LVU123
  67:Core/Src/aes.c ****         /* MixColumns */
 403              		.loc 1 67 26 is_stmt 0 view .LVU124
 404 0054 E27A     		ldrb	r2, [r4, #11]	@ zero_extendqisi2
 405 0056 E273     		strb	r2, [r4, #15]
  67:Core/Src/aes.c ****         /* MixColumns */
 406              		.loc 1 67 35 is_stmt 1 view .LVU125
  67:Core/Src/aes.c ****         /* MixColumns */
 407              		.loc 1 67 41 is_stmt 0 view .LVU126
 408 0058 E279     		ldrb	r2, [r4, #7]	@ zero_extendqisi2
 409 005a E272     		strb	r2, [r4, #11]
  67:Core/Src/aes.c ****         /* MixColumns */
 410              		.loc 1 67 49 is_stmt 1 view .LVU127
  67:Core/Src/aes.c ****         /* MixColumns */
 411              		.loc 1 67 54 is_stmt 0 view .LVU128
 412 005c E278     		ldrb	r2, [r4, #3]	@ zero_extendqisi2
 413 005e E271     		strb	r2, [r4, #7]
  67:Core/Src/aes.c ****         /* MixColumns */
 414              		.loc 1 67 63 is_stmt 1 view .LVU129
  67:Core/Src/aes.c ****         /* MixColumns */
 415              		.loc 1 67 69 is_stmt 0 view .LVU130
 416 0060 E370     		strb	r3, [r4, #3]
  69:Core/Src/aes.c ****             uint8_t *col = s + c * 4;
 417              		.loc 1 69 9 is_stmt 1 view .LVU131
 418              	.LBB12:
  69:Core/Src/aes.c ****             uint8_t *col = s + c * 4;
 419              		.loc 1 69 14 view .LVU132
 420              	.LVL27:
ARM GAS  /tmp/ccndHvKY.s 			page 12


  69:Core/Src/aes.c ****             uint8_t *col = s + c * 4;
 421              		.loc 1 69 18 is_stmt 0 view .LVU133
 422 0062 4FF00009 		mov	r9, #0
  69:Core/Src/aes.c ****             uint8_t *col = s + c * 4;
 423              		.loc 1 69 9 view .LVU134
 424 0066 37E0     		b	.L22
 425              	.LVL28:
 426              	.L23:
 427              	.LBB13:
  70:Core/Src/aes.c ****             uint8_t a0 = col[0], a1 = col[1], a2 = col[2], a3 = col[3];
 428              		.loc 1 70 13 is_stmt 1 discriminator 3 view .LVU135
  70:Core/Src/aes.c ****             uint8_t a0 = col[0], a1 = col[1], a2 = col[2], a3 = col[3];
 429              		.loc 1 70 22 is_stmt 0 discriminator 3 view .LVU136
 430 0068 04EB8905 		add	r5, r4, r9, lsl #2
 431              	.LVL29:
  71:Core/Src/aes.c ****             uint8_t h = a0 ^ a1 ^ a2 ^ a3;
 432              		.loc 1 71 13 is_stmt 1 discriminator 3 view .LVU137
  71:Core/Src/aes.c ****             uint8_t h = a0 ^ a1 ^ a2 ^ a3;
 433              		.loc 1 71 21 is_stmt 0 discriminator 3 view .LVU138
 434 006c 14F82920 		ldrb	r2, [r4, r9, lsl #2]	@ zero_extendqisi2
 435              	.LVL30:
  71:Core/Src/aes.c ****             uint8_t h = a0 ^ a1 ^ a2 ^ a3;
 436              		.loc 1 71 34 discriminator 3 view .LVU139
 437 0070 6978     		ldrb	r1, [r5, #1]	@ zero_extendqisi2
 438              	.LVL31:
  71:Core/Src/aes.c ****             uint8_t h = a0 ^ a1 ^ a2 ^ a3;
 439              		.loc 1 71 47 discriminator 3 view .LVU140
 440 0072 95F80280 		ldrb	r8, [r5, #2]	@ zero_extendqisi2
 441              	.LVL32:
  71:Core/Src/aes.c ****             uint8_t h = a0 ^ a1 ^ a2 ^ a3;
 442              		.loc 1 71 60 discriminator 3 view .LVU141
 443 0076 EE78     		ldrb	r6, [r5, #3]	@ zero_extendqisi2
 444              	.LVL33:
  72:Core/Src/aes.c ****             col[0] ^= h ^ xtime(a0 ^ a1);
 445              		.loc 1 72 13 is_stmt 1 discriminator 3 view .LVU142
  72:Core/Src/aes.c ****             col[0] ^= h ^ xtime(a0 ^ a1);
 446              		.loc 1 72 21 is_stmt 0 discriminator 3 view .LVU143
 447 0078 0092     		str	r2, [sp]
 448 007a 0191     		str	r1, [sp, #4]
 449 007c 82EA0100 		eor	r0, r2, r1
 450 0080 80EA0807 		eor	r7, r0, r8
 451 0084 7740     		eors	r7, r7, r6
 452              	.LVL34:
  73:Core/Src/aes.c ****             col[1] ^= h ^ xtime(a1 ^ a2);
 453              		.loc 1 73 13 is_stmt 1 discriminator 3 view .LVU144
  73:Core/Src/aes.c ****             col[1] ^= h ^ xtime(a1 ^ a2);
 454              		.loc 1 73 27 is_stmt 0 discriminator 3 view .LVU145
 455 0086 FFF7FEFF 		bl	xtime
 456              	.LVL35:
  73:Core/Src/aes.c ****             col[1] ^= h ^ xtime(a1 ^ a2);
 457              		.loc 1 73 25 discriminator 3 view .LVU146
 458 008a 80EA0703 		eor	r3, r0, r7
 459 008e DBB2     		uxtb	r3, r3
  73:Core/Src/aes.c ****             col[1] ^= h ^ xtime(a1 ^ a2);
 460              		.loc 1 73 20 discriminator 3 view .LVU147
 461 0090 009A     		ldr	r2, [sp]
 462 0092 5340     		eors	r3, r3, r2
ARM GAS  /tmp/ccndHvKY.s 			page 13


 463 0094 04F82930 		strb	r3, [r4, r9, lsl #2]
  74:Core/Src/aes.c ****             col[2] ^= h ^ xtime(a2 ^ a3);
 464              		.loc 1 74 13 is_stmt 1 discriminator 3 view .LVU148
  74:Core/Src/aes.c ****             col[2] ^= h ^ xtime(a2 ^ a3);
 465              		.loc 1 74 27 is_stmt 0 discriminator 3 view .LVU149
 466 0098 0199     		ldr	r1, [sp, #4]
 467 009a 81EA0800 		eor	r0, r1, r8
 468 009e FFF7FEFF 		bl	xtime
 469              	.LVL36:
  74:Core/Src/aes.c ****             col[2] ^= h ^ xtime(a2 ^ a3);
 470              		.loc 1 74 25 discriminator 3 view .LVU150
 471 00a2 80EA0703 		eor	r3, r0, r7
 472 00a6 DBB2     		uxtb	r3, r3
  74:Core/Src/aes.c ****             col[2] ^= h ^ xtime(a2 ^ a3);
 473              		.loc 1 74 20 discriminator 3 view .LVU151
 474 00a8 0199     		ldr	r1, [sp, #4]
 475 00aa 4B40     		eors	r3, r3, r1
 476 00ac 6B70     		strb	r3, [r5, #1]
  75:Core/Src/aes.c ****             col[3] ^= h ^ xtime(a3 ^ a0);
 477              		.loc 1 75 13 is_stmt 1 discriminator 3 view .LVU152
  75:Core/Src/aes.c ****             col[3] ^= h ^ xtime(a3 ^ a0);
 478              		.loc 1 75 27 is_stmt 0 discriminator 3 view .LVU153
 479 00ae 88EA0600 		eor	r0, r8, r6
 480 00b2 FFF7FEFF 		bl	xtime
 481              	.LVL37:
  75:Core/Src/aes.c ****             col[3] ^= h ^ xtime(a3 ^ a0);
 482              		.loc 1 75 25 discriminator 3 view .LVU154
 483 00b6 7840     		eors	r0, r0, r7
 484 00b8 C0B2     		uxtb	r0, r0
  75:Core/Src/aes.c ****             col[3] ^= h ^ xtime(a3 ^ a0);
 485              		.loc 1 75 20 discriminator 3 view .LVU155
 486 00ba 88EA0008 		eor	r8, r8, r0
 487              	.LVL38:
  75:Core/Src/aes.c ****             col[3] ^= h ^ xtime(a3 ^ a0);
 488              		.loc 1 75 20 discriminator 3 view .LVU156
 489 00be 85F80280 		strb	r8, [r5, #2]
  76:Core/Src/aes.c ****         }
 490              		.loc 1 76 13 is_stmt 1 discriminator 3 view .LVU157
  76:Core/Src/aes.c ****         }
 491              		.loc 1 76 27 is_stmt 0 discriminator 3 view .LVU158
 492 00c2 009A     		ldr	r2, [sp]
 493 00c4 82EA0600 		eor	r0, r2, r6
 494 00c8 FFF7FEFF 		bl	xtime
 495              	.LVL39:
  76:Core/Src/aes.c ****         }
 496              		.loc 1 76 25 discriminator 3 view .LVU159
 497 00cc 4740     		eors	r7, r7, r0
 498              	.LVL40:
  76:Core/Src/aes.c ****         }
 499              		.loc 1 76 25 discriminator 3 view .LVU160
 500 00ce FFB2     		uxtb	r7, r7
  76:Core/Src/aes.c ****         }
 501              		.loc 1 76 20 discriminator 3 view .LVU161
 502 00d0 7E40     		eors	r6, r6, r7
 503              	.LVL41:
  76:Core/Src/aes.c ****         }
 504              		.loc 1 76 20 discriminator 3 view .LVU162
ARM GAS  /tmp/ccndHvKY.s 			page 14


 505 00d2 EE70     		strb	r6, [r5, #3]
 506              	.LBE13:
  69:Core/Src/aes.c ****             uint8_t *col = s + c * 4;
 507              		.loc 1 69 32 is_stmt 1 discriminator 3 view .LVU163
  69:Core/Src/aes.c ****             uint8_t *col = s + c * 4;
 508              		.loc 1 69 33 is_stmt 0 discriminator 3 view .LVU164
 509 00d4 09F10109 		add	r9, r9, #1
 510              	.LVL42:
 511              	.L22:
  69:Core/Src/aes.c ****             uint8_t *col = s + c * 4;
 512              		.loc 1 69 25 is_stmt 1 discriminator 1 view .LVU165
  69:Core/Src/aes.c ****             uint8_t *col = s + c * 4;
 513              		.loc 1 69 9 is_stmt 0 discriminator 1 view .LVU166
 514 00d8 B9F1030F 		cmp	r9, #3
 515 00dc C4DD     		ble	.L23
 516              	.LBE12:
 517              	.LBB14:
  79:Core/Src/aes.c ****     }
 518              		.loc 1 79 18 view .LVU167
 519 00de 0023     		movs	r3, #0
 520 00e0 07E0     		b	.L24
 521              	.LVL43:
 522              	.L25:
  79:Core/Src/aes.c ****     }
 523              		.loc 1 79 38 is_stmt 1 discriminator 3 view .LVU168
  79:Core/Src/aes.c ****     }
 524              		.loc 1 79 60 is_stmt 0 discriminator 3 view .LVU169
 525 00e2 03EB0B12 		add	r2, r3, fp, lsl #4
  79:Core/Src/aes.c ****     }
 526              		.loc 1 79 48 discriminator 3 view .LVU170
 527 00e6 1AF80220 		ldrb	r2, [r10, r2]	@ zero_extendqisi2
  79:Core/Src/aes.c ****     }
 528              		.loc 1 79 43 discriminator 3 view .LVU171
 529 00ea E15C     		ldrb	r1, [r4, r3]	@ zero_extendqisi2
 530 00ec 4A40     		eors	r2, r2, r1
 531 00ee E254     		strb	r2, [r4, r3]
  79:Core/Src/aes.c ****     }
 532              		.loc 1 79 33 is_stmt 1 discriminator 3 view .LVU172
  79:Core/Src/aes.c ****     }
 533              		.loc 1 79 34 is_stmt 0 discriminator 3 view .LVU173
 534 00f0 0133     		adds	r3, r3, #1
 535              	.LVL44:
 536              	.L24:
  79:Core/Src/aes.c ****     }
 537              		.loc 1 79 25 is_stmt 1 discriminator 1 view .LVU174
  79:Core/Src/aes.c ****     }
 538              		.loc 1 79 9 is_stmt 0 discriminator 1 view .LVU175
 539 00f2 0F2B     		cmp	r3, #15
 540 00f4 F5DD     		ble	.L25
 541              	.LBE14:
 542              	.LBE10:
  60:Core/Src/aes.c ****         /* SubBytes */
 543              		.loc 1 60 37 is_stmt 1 discriminator 2 view .LVU176
  60:Core/Src/aes.c ****         /* SubBytes */
 544              		.loc 1 60 42 is_stmt 0 discriminator 2 view .LVU177
 545 00f6 0BF1010B 		add	fp, fp, #1
 546              	.LVL45:
ARM GAS  /tmp/ccndHvKY.s 			page 15


 547              	.L20:
  60:Core/Src/aes.c ****         /* SubBytes */
 548              		.loc 1 60 25 is_stmt 1 discriminator 1 view .LVU178
  60:Core/Src/aes.c ****         /* SubBytes */
 549              		.loc 1 60 5 is_stmt 0 discriminator 1 view .LVU179
 550 00fa BBF1090F 		cmp	fp, #9
 551 00fe 01DC     		bgt	.L33
 552              	.LBB16:
 553              	.LBB15:
  62:Core/Src/aes.c ****         /* ShiftRows */
 554              		.loc 1 62 18 view .LVU180
 555 0100 0023     		movs	r3, #0
 556 0102 94E7     		b	.L26
 557              	.L33:
 558              	.LBE15:
 559              	.LBE16:
 560              	.LBE9:
 561              	.LBB17:
  82:Core/Src/aes.c ****     uint8_t t;
 562              		.loc 1 82 14 view .LVU181
 563 0104 0023     		movs	r3, #0
 564 0106 04E0     		b	.L27
 565              	.LVL46:
 566              	.L28:
  82:Core/Src/aes.c ****     uint8_t t;
 567              		.loc 1 82 34 is_stmt 1 discriminator 3 view .LVU182
  82:Core/Src/aes.c ****     uint8_t t;
 568              		.loc 1 82 51 is_stmt 0 discriminator 3 view .LVU183
 569 0108 E25C     		ldrb	r2, [r4, r3]	@ zero_extendqisi2
  82:Core/Src/aes.c ****     uint8_t t;
 570              		.loc 1 82 49 discriminator 3 view .LVU184
 571 010a 1649     		ldr	r1, .L34
 572 010c 8A5C     		ldrb	r2, [r1, r2]	@ zero_extendqisi2
  82:Core/Src/aes.c ****     uint8_t t;
 573              		.loc 1 82 39 discriminator 3 view .LVU185
 574 010e E254     		strb	r2, [r4, r3]
  82:Core/Src/aes.c ****     uint8_t t;
 575              		.loc 1 82 29 is_stmt 1 discriminator 3 view .LVU186
  82:Core/Src/aes.c ****     uint8_t t;
 576              		.loc 1 82 30 is_stmt 0 discriminator 3 view .LVU187
 577 0110 0133     		adds	r3, r3, #1
 578              	.LVL47:
 579              	.L27:
  82:Core/Src/aes.c ****     uint8_t t;
 580              		.loc 1 82 21 is_stmt 1 discriminator 1 view .LVU188
  82:Core/Src/aes.c ****     uint8_t t;
 581              		.loc 1 82 5 is_stmt 0 discriminator 1 view .LVU189
 582 0112 0F2B     		cmp	r3, #15
 583 0114 F8DD     		ble	.L28
 584              	.LBE17:
  83:Core/Src/aes.c ****     t = s[1];  s[1] = s[5];  s[5] = s[9];   s[9]  = s[13]; s[13] = t;
 585              		.loc 1 83 5 is_stmt 1 view .LVU190
  84:Core/Src/aes.c ****     t = s[2];  s[2] = s[10]; s[10] = t;  t = s[6]; s[6] = s[14]; s[14] = t;
 586              		.loc 1 84 5 view .LVU191
  84:Core/Src/aes.c ****     t = s[2];  s[2] = s[10]; s[10] = t;  t = s[6]; s[6] = s[14]; s[14] = t;
 587              		.loc 1 84 7 is_stmt 0 view .LVU192
 588 0116 6378     		ldrb	r3, [r4, #1]	@ zero_extendqisi2
ARM GAS  /tmp/ccndHvKY.s 			page 16


 589              	.LVL48:
  84:Core/Src/aes.c ****     t = s[2];  s[2] = s[10]; s[10] = t;  t = s[6]; s[6] = s[14]; s[14] = t;
 590              		.loc 1 84 16 is_stmt 1 view .LVU193
  84:Core/Src/aes.c ****     t = s[2];  s[2] = s[10]; s[10] = t;  t = s[6]; s[6] = s[14]; s[14] = t;
 591              		.loc 1 84 21 is_stmt 0 view .LVU194
 592 0118 6279     		ldrb	r2, [r4, #5]	@ zero_extendqisi2
 593 011a 6270     		strb	r2, [r4, #1]
  84:Core/Src/aes.c ****     t = s[2];  s[2] = s[10]; s[10] = t;  t = s[6]; s[6] = s[14]; s[14] = t;
 594              		.loc 1 84 30 is_stmt 1 view .LVU195
  84:Core/Src/aes.c ****     t = s[2];  s[2] = s[10]; s[10] = t;  t = s[6]; s[6] = s[14]; s[14] = t;
 595              		.loc 1 84 35 is_stmt 0 view .LVU196
 596 011c 627A     		ldrb	r2, [r4, #9]	@ zero_extendqisi2
 597 011e 6271     		strb	r2, [r4, #5]
  84:Core/Src/aes.c ****     t = s[2];  s[2] = s[10]; s[10] = t;  t = s[6]; s[6] = s[14]; s[14] = t;
 598              		.loc 1 84 45 is_stmt 1 view .LVU197
  84:Core/Src/aes.c ****     t = s[2];  s[2] = s[10]; s[10] = t;  t = s[6]; s[6] = s[14]; s[14] = t;
 599              		.loc 1 84 51 is_stmt 0 view .LVU198
 600 0120 627B     		ldrb	r2, [r4, #13]	@ zero_extendqisi2
 601 0122 6272     		strb	r2, [r4, #9]
  84:Core/Src/aes.c ****     t = s[2];  s[2] = s[10]; s[10] = t;  t = s[6]; s[6] = s[14]; s[14] = t;
 602              		.loc 1 84 60 is_stmt 1 view .LVU199
  84:Core/Src/aes.c ****     t = s[2];  s[2] = s[10]; s[10] = t;  t = s[6]; s[6] = s[14]; s[14] = t;
 603              		.loc 1 84 66 is_stmt 0 view .LVU200
 604 0124 6373     		strb	r3, [r4, #13]
  85:Core/Src/aes.c ****     t = s[15]; s[15] = s[11]; s[11] = s[7]; s[7] = s[3];  s[3]  = t;
 605              		.loc 1 85 5 is_stmt 1 view .LVU201
  85:Core/Src/aes.c ****     t = s[15]; s[15] = s[11]; s[11] = s[7]; s[7] = s[3];  s[3]  = t;
 606              		.loc 1 85 7 is_stmt 0 view .LVU202
 607 0126 A378     		ldrb	r3, [r4, #2]	@ zero_extendqisi2
 608              	.LVL49:
  85:Core/Src/aes.c ****     t = s[15]; s[15] = s[11]; s[11] = s[7]; s[7] = s[3];  s[3]  = t;
 609              		.loc 1 85 16 is_stmt 1 view .LVU203
  85:Core/Src/aes.c ****     t = s[15]; s[15] = s[11]; s[11] = s[7]; s[7] = s[3];  s[3]  = t;
 610              		.loc 1 85 21 is_stmt 0 view .LVU204
 611 0128 A27A     		ldrb	r2, [r4, #10]	@ zero_extendqisi2
 612 012a A270     		strb	r2, [r4, #2]
  85:Core/Src/aes.c ****     t = s[15]; s[15] = s[11]; s[11] = s[7]; s[7] = s[3];  s[3]  = t;
 613              		.loc 1 85 30 is_stmt 1 view .LVU205
  85:Core/Src/aes.c ****     t = s[15]; s[15] = s[11]; s[11] = s[7]; s[7] = s[3];  s[3]  = t;
 614              		.loc 1 85 36 is_stmt 0 view .LVU206
 615 012c A372     		strb	r3, [r4, #10]
  85:Core/Src/aes.c ****     t = s[15]; s[15] = s[11]; s[11] = s[7]; s[7] = s[3];  s[3]  = t;
 616              		.loc 1 85 42 is_stmt 1 view .LVU207
  85:Core/Src/aes.c ****     t = s[15]; s[15] = s[11]; s[11] = s[7]; s[7] = s[3];  s[3]  = t;
 617              		.loc 1 85 44 is_stmt 0 view .LVU208
 618 012e A379     		ldrb	r3, [r4, #6]	@ zero_extendqisi2
 619              	.LVL50:
  85:Core/Src/aes.c ****     t = s[15]; s[15] = s[11]; s[11] = s[7]; s[7] = s[3];  s[3]  = t;
 620              		.loc 1 85 52 is_stmt 1 view .LVU209
  85:Core/Src/aes.c ****     t = s[15]; s[15] = s[11]; s[11] = s[7]; s[7] = s[3];  s[3]  = t;
 621              		.loc 1 85 57 is_stmt 0 view .LVU210
 622 0130 A27B     		ldrb	r2, [r4, #14]	@ zero_extendqisi2
 623 0132 A271     		strb	r2, [r4, #6]
  85:Core/Src/aes.c ****     t = s[15]; s[15] = s[11]; s[11] = s[7]; s[7] = s[3];  s[3]  = t;
 624              		.loc 1 85 66 is_stmt 1 view .LVU211
  85:Core/Src/aes.c ****     t = s[15]; s[15] = s[11]; s[11] = s[7]; s[7] = s[3];  s[3]  = t;
 625              		.loc 1 85 72 is_stmt 0 view .LVU212
ARM GAS  /tmp/ccndHvKY.s 			page 17


 626 0134 A373     		strb	r3, [r4, #14]
  86:Core/Src/aes.c ****     for (int i = 0; i < 16; i++) s[i] ^= rk[160 + i];
 627              		.loc 1 86 5 is_stmt 1 view .LVU213
  86:Core/Src/aes.c ****     for (int i = 0; i < 16; i++) s[i] ^= rk[160 + i];
 628              		.loc 1 86 7 is_stmt 0 view .LVU214
 629 0136 E37B     		ldrb	r3, [r4, #15]	@ zero_extendqisi2
 630              	.LVL51:
  86:Core/Src/aes.c ****     for (int i = 0; i < 16; i++) s[i] ^= rk[160 + i];
 631              		.loc 1 86 16 is_stmt 1 view .LVU215
  86:Core/Src/aes.c ****     for (int i = 0; i < 16; i++) s[i] ^= rk[160 + i];
 632              		.loc 1 86 22 is_stmt 0 view .LVU216
 633 0138 E27A     		ldrb	r2, [r4, #11]	@ zero_extendqisi2
 634 013a E273     		strb	r2, [r4, #15]
  86:Core/Src/aes.c ****     for (int i = 0; i < 16; i++) s[i] ^= rk[160 + i];
 635              		.loc 1 86 31 is_stmt 1 view .LVU217
  86:Core/Src/aes.c ****     for (int i = 0; i < 16; i++) s[i] ^= rk[160 + i];
 636              		.loc 1 86 37 is_stmt 0 view .LVU218
 637 013c E279     		ldrb	r2, [r4, #7]	@ zero_extendqisi2
 638 013e E272     		strb	r2, [r4, #11]
  86:Core/Src/aes.c ****     for (int i = 0; i < 16; i++) s[i] ^= rk[160 + i];
 639              		.loc 1 86 45 is_stmt 1 view .LVU219
  86:Core/Src/aes.c ****     for (int i = 0; i < 16; i++) s[i] ^= rk[160 + i];
 640              		.loc 1 86 50 is_stmt 0 view .LVU220
 641 0140 E278     		ldrb	r2, [r4, #3]	@ zero_extendqisi2
 642 0142 E271     		strb	r2, [r4, #7]
  86:Core/Src/aes.c ****     for (int i = 0; i < 16; i++) s[i] ^= rk[160 + i];
 643              		.loc 1 86 59 is_stmt 1 view .LVU221
  86:Core/Src/aes.c ****     for (int i = 0; i < 16; i++) s[i] ^= rk[160 + i];
 644              		.loc 1 86 65 is_stmt 0 view .LVU222
 645 0144 E370     		strb	r3, [r4, #3]
  87:Core/Src/aes.c **** }
 646              		.loc 1 87 5 is_stmt 1 view .LVU223
 647              	.LBB18:
  87:Core/Src/aes.c **** }
 648              		.loc 1 87 10 view .LVU224
 649              	.LVL52:
  87:Core/Src/aes.c **** }
 650              		.loc 1 87 14 is_stmt 0 view .LVU225
 651 0146 0023     		movs	r3, #0
 652              	.LVL53:
  87:Core/Src/aes.c **** }
 653              		.loc 1 87 5 view .LVU226
 654 0148 07E0     		b	.L29
 655              	.LVL54:
 656              	.L30:
  87:Core/Src/aes.c **** }
 657              		.loc 1 87 34 is_stmt 1 discriminator 3 view .LVU227
  87:Core/Src/aes.c **** }
 658              		.loc 1 87 49 is_stmt 0 discriminator 3 view .LVU228
 659 014a 03F1A002 		add	r2, r3, #160
  87:Core/Src/aes.c **** }
 660              		.loc 1 87 44 discriminator 3 view .LVU229
 661 014e 1AF80220 		ldrb	r2, [r10, r2]	@ zero_extendqisi2
  87:Core/Src/aes.c **** }
 662              		.loc 1 87 39 discriminator 3 view .LVU230
 663 0152 E15C     		ldrb	r1, [r4, r3]	@ zero_extendqisi2
 664 0154 4A40     		eors	r2, r2, r1
ARM GAS  /tmp/ccndHvKY.s 			page 18


 665 0156 E254     		strb	r2, [r4, r3]
  87:Core/Src/aes.c **** }
 666              		.loc 1 87 29 is_stmt 1 discriminator 3 view .LVU231
  87:Core/Src/aes.c **** }
 667              		.loc 1 87 30 is_stmt 0 discriminator 3 view .LVU232
 668 0158 0133     		adds	r3, r3, #1
 669              	.LVL55:
 670              	.L29:
  87:Core/Src/aes.c **** }
 671              		.loc 1 87 21 is_stmt 1 discriminator 1 view .LVU233
  87:Core/Src/aes.c **** }
 672              		.loc 1 87 5 is_stmt 0 discriminator 1 view .LVU234
 673 015a 0F2B     		cmp	r3, #15
 674 015c F5DD     		ble	.L30
 675              	.LBE18:
  88:Core/Src/aes.c **** 
 676              		.loc 1 88 1 view .LVU235
 677 015e 03B0     		add	sp, sp, #12
 678              	.LCFI5:
 679              		.cfi_def_cfa_offset 36
 680              		@ sp needed
 681 0160 BDE8F08F 		pop	{r4, r5, r6, r7, r8, r9, r10, fp, pc}
 682              	.LVL56:
 683              	.L35:
  88:Core/Src/aes.c **** 
 684              		.loc 1 88 1 view .LVU236
 685              		.align	2
 686              	.L34:
 687 0164 00000000 		.word	.LANCHOR0
 688              		.cfi_endproc
 689              	.LFE2:
 691              		.section	.text.cmac_subkey,"ax",%progbits
 692              		.align	1
 693              		.syntax unified
 694              		.thumb
 695              		.thumb_func
 696              		.fpu softvfp
 698              	cmac_subkey:
 699              	.LVL57:
 700              	.LFB4:
 100:Core/Src/aes.c **** 
 101:Core/Src/aes.c **** static void cmac_subkey(const uint8_t rk[176], uint8_t k1[16], uint8_t k2[16])
 102:Core/Src/aes.c **** {
 701              		.loc 1 102 1 is_stmt 1 view -0
 702              		.cfi_startproc
 703              		@ args = 0, pretend = 0, frame = 16
 704              		@ frame_needed = 0, uses_anonymous_args = 0
 705              		.loc 1 102 1 is_stmt 0 view .LVU238
 706 0000 30B5     		push	{r4, r5, lr}
 707              	.LCFI6:
 708              		.cfi_def_cfa_offset 12
 709              		.cfi_offset 4, -12
 710              		.cfi_offset 5, -8
 711              		.cfi_offset 14, -4
 712 0002 85B0     		sub	sp, sp, #20
 713              	.LCFI7:
 714              		.cfi_def_cfa_offset 32
ARM GAS  /tmp/ccndHvKY.s 			page 19


 715 0004 0C46     		mov	r4, r1
 716 0006 1546     		mov	r5, r2
 103:Core/Src/aes.c ****     uint8_t L[16] = {0};
 717              		.loc 1 103 5 is_stmt 1 view .LVU239
 718              		.loc 1 103 13 is_stmt 0 view .LVU240
 719 0008 0023     		movs	r3, #0
 720 000a 0093     		str	r3, [sp]
 721 000c 0193     		str	r3, [sp, #4]
 722 000e 0293     		str	r3, [sp, #8]
 723 0010 0393     		str	r3, [sp, #12]
 104:Core/Src/aes.c ****     aes_encrypt_block(rk, L);            /* AES(0^16) */
 724              		.loc 1 104 5 is_stmt 1 view .LVU241
 725 0012 6946     		mov	r1, sp
 726              	.LVL58:
 727              		.loc 1 104 5 is_stmt 0 view .LVU242
 728 0014 FFF7FEFF 		bl	aes_encrypt_block
 729              	.LVL59:
 105:Core/Src/aes.c ****     leftshift_onebit(L, k1);
 730              		.loc 1 105 5 is_stmt 1 view .LVU243
 731 0018 2146     		mov	r1, r4
 732 001a 6846     		mov	r0, sp
 733 001c FFF7FEFF 		bl	leftshift_onebit
 734              	.LVL60:
 106:Core/Src/aes.c ****     if (L[0] & 0x80) k1[15] ^= 0x87;
 735              		.loc 1 106 5 view .LVU244
 736              		.loc 1 106 9 is_stmt 0 view .LVU245
 737 0020 9DF90030 		ldrsb	r3, [sp]
 738              		.loc 1 106 8 view .LVU246
 739 0024 002B     		cmp	r3, #0
 740 0026 09DB     		blt	.L40
 741              	.L37:
 107:Core/Src/aes.c ****     leftshift_onebit(k1, k2);
 742              		.loc 1 107 5 is_stmt 1 view .LVU247
 743 0028 2946     		mov	r1, r5
 744 002a 2046     		mov	r0, r4
 745 002c FFF7FEFF 		bl	leftshift_onebit
 746              	.LVL61:
 108:Core/Src/aes.c ****     if (k1[0] & 0x80) k2[15] ^= 0x87;
 747              		.loc 1 108 5 view .LVU248
 748              		.loc 1 108 9 is_stmt 0 view .LVU249
 749 0030 94F90030 		ldrsb	r3, [r4]
 750              		.loc 1 108 8 view .LVU250
 751 0034 002B     		cmp	r3, #0
 752 0036 06DB     		blt	.L41
 753              	.L36:
 109:Core/Src/aes.c **** }
 754              		.loc 1 109 1 view .LVU251
 755 0038 05B0     		add	sp, sp, #20
 756              	.LCFI8:
 757              		.cfi_remember_state
 758              		.cfi_def_cfa_offset 12
 759              		@ sp needed
 760 003a 30BD     		pop	{r4, r5, pc}
 761              	.LVL62:
 762              	.L40:
 763              	.LCFI9:
 764              		.cfi_restore_state
ARM GAS  /tmp/ccndHvKY.s 			page 20


 106:Core/Src/aes.c ****     leftshift_onebit(k1, k2);
 765              		.loc 1 106 22 is_stmt 1 discriminator 1 view .LVU252
 106:Core/Src/aes.c ****     leftshift_onebit(k1, k2);
 766              		.loc 1 106 29 is_stmt 0 discriminator 1 view .LVU253
 767 003c E37B     		ldrb	r3, [r4, #15]	@ zero_extendqisi2
 768 003e 83F08703 		eor	r3, r3, #135
 769 0042 E373     		strb	r3, [r4, #15]
 770 0044 F0E7     		b	.L37
 771              	.L41:
 108:Core/Src/aes.c ****     if (k1[0] & 0x80) k2[15] ^= 0x87;
 772              		.loc 1 108 23 is_stmt 1 discriminator 1 view .LVU254
 108:Core/Src/aes.c ****     if (k1[0] & 0x80) k2[15] ^= 0x87;
 773              		.loc 1 108 30 is_stmt 0 discriminator 1 view .LVU255
 774 0046 EB7B     		ldrb	r3, [r5, #15]	@ zero_extendqisi2
 775 0048 83F08703 		eor	r3, r3, #135
 776 004c EB73     		strb	r3, [r5, #15]
 777              		.loc 1 109 1 discriminator 1 view .LVU256
 778 004e F3E7     		b	.L36
 779              		.cfi_endproc
 780              	.LFE4:
 782              		.section	.text.aes_cmac,"ax",%progbits
 783              		.align	1
 784              		.global	aes_cmac
 785              		.syntax unified
 786              		.thumb
 787              		.thumb_func
 788              		.fpu softvfp
 790              	aes_cmac:
 791              	.LVL63:
 792              	.LFB5:
 110:Core/Src/aes.c **** 
 111:Core/Src/aes.c **** void aes_cmac(const uint8_t key[16], const uint8_t *msg, int len, uint8_t mac[16])
 112:Core/Src/aes.c **** {
 793              		.loc 1 112 1 is_stmt 1 view -0
 794              		.cfi_startproc
 795              		@ args = 0, pretend = 0, frame = 240
 796              		@ frame_needed = 0, uses_anonymous_args = 0
 797              		.loc 1 112 1 is_stmt 0 view .LVU258
 798 0000 F0B5     		push	{r4, r5, r6, r7, lr}
 799              	.LCFI10:
 800              		.cfi_def_cfa_offset 20
 801              		.cfi_offset 4, -20
 802              		.cfi_offset 5, -16
 803              		.cfi_offset 6, -12
 804              		.cfi_offset 7, -8
 805              		.cfi_offset 14, -4
 806 0002 BDB0     		sub	sp, sp, #244
 807              	.LCFI11:
 808              		.cfi_def_cfa_offset 264
 809 0004 0D46     		mov	r5, r1
 810 0006 1446     		mov	r4, r2
 811 0008 1F46     		mov	r7, r3
 113:Core/Src/aes.c ****     uint8_t rk[176];
 812              		.loc 1 113 5 is_stmt 1 view .LVU259
 114:Core/Src/aes.c ****     aes_key_expand(key, rk);
 813              		.loc 1 114 5 view .LVU260
 814 000a 10A9     		add	r1, sp, #64
ARM GAS  /tmp/ccndHvKY.s 			page 21


 815              	.LVL64:
 816              		.loc 1 114 5 is_stmt 0 view .LVU261
 817 000c FFF7FEFF 		bl	aes_key_expand
 818              	.LVL65:
 115:Core/Src/aes.c ****     uint8_t k1[16], k2[16];
 819              		.loc 1 115 5 is_stmt 1 view .LVU262
 116:Core/Src/aes.c ****     cmac_subkey(rk, k1, k2);
 820              		.loc 1 116 5 view .LVU263
 821 0010 08AA     		add	r2, sp, #32
 822 0012 0CA9     		add	r1, sp, #48
 823 0014 10A8     		add	r0, sp, #64
 824 0016 FFF7FEFF 		bl	cmac_subkey
 825              	.LVL66:
 117:Core/Src/aes.c **** 
 118:Core/Src/aes.c ****     int n = (len + 15) / 16;
 826              		.loc 1 118 5 view .LVU264
 827              		.loc 1 118 9 is_stmt 0 view .LVU265
 828 001a 14F10F03 		adds	r3, r4, #15
 829 001e 13D4     		bmi	.L64
 830              	.L43:
 831              	.LVL67:
 119:Core/Src/aes.c ****     int flag_complete;
 832              		.loc 1 119 5 is_stmt 1 view .LVU266
 120:Core/Src/aes.c ****     if (n == 0) { n = 1; flag_complete = 0; }
 833              		.loc 1 120 5 view .LVU267
 834              		.loc 1 120 8 is_stmt 0 view .LVU268
 835 0020 1B11     		asrs	r3, r3, #4
 836              	.LVL68:
 837              		.loc 1 120 8 view .LVU269
 838 0022 13D0     		beq	.L58
 121:Core/Src/aes.c ****     else flag_complete = (len % 16 == 0);
 839              		.loc 1 121 10 is_stmt 1 view .LVU270
 840              		.loc 1 121 36 is_stmt 0 view .LVU271
 841 0024 14F00F0F 		tst	r4, #15
 842              	.LVL69:
 118:Core/Src/aes.c ****     int flag_complete;
 843              		.loc 1 118 9 view .LVU272
 844 0028 1E46     		mov	r6, r3
 845              		.loc 1 121 24 view .LVU273
 846 002a 0CBF     		ite	eq
 847 002c 0123     		moveq	r3, #1
 848              	.LVL70:
 849              		.loc 1 121 24 view .LVU274
 850 002e 0023     		movne	r3, #0
 851              	.LVL71:
 852              	.L44:
 122:Core/Src/aes.c **** 
 123:Core/Src/aes.c ****     uint8_t X[16] = {0};
 853              		.loc 1 123 5 is_stmt 1 view .LVU275
 854              		.loc 1 123 13 is_stmt 0 view .LVU276
 855 0030 0022     		movs	r2, #0
 856 0032 0492     		str	r2, [sp, #16]
 857 0034 0592     		str	r2, [sp, #20]
 858 0036 0692     		str	r2, [sp, #24]
 859 0038 0792     		str	r2, [sp, #28]
 124:Core/Src/aes.c ****     uint8_t M_last[16];
 860              		.loc 1 124 5 is_stmt 1 view .LVU277
ARM GAS  /tmp/ccndHvKY.s 			page 22


 125:Core/Src/aes.c **** 
 126:Core/Src/aes.c ****     int last_start = (n - 1) * 16;
 861              		.loc 1 126 5 view .LVU278
 862              		.loc 1 126 25 is_stmt 0 view .LVU279
 863 003a 013E     		subs	r6, r6, #1
 864              	.LVL72:
 865              		.loc 1 126 9 view .LVU280
 866 003c 4FEA061C 		lsl	ip, r6, #4
 867              	.LVL73:
 127:Core/Src/aes.c ****     if (flag_complete) {
 868              		.loc 1 127 5 is_stmt 1 view .LVU281
 869              		.loc 1 127 8 is_stmt 0 view .LVU282
 870 0040 B3B9     		cbnz	r3, .L59
 871              	.LBB19:
 128:Core/Src/aes.c ****         for (int i = 0; i < 16; i++) M_last[i] = msg[last_start + i] ^ k1[i];
 129:Core/Src/aes.c ****     } else {
 130:Core/Src/aes.c ****         int rem = len - last_start;
 872              		.loc 1 130 9 is_stmt 1 view .LVU283
 873              		.loc 1 130 13 is_stmt 0 view .LVU284
 874 0042 A4EB0C00 		sub	r0, r4, ip
 875              	.LVL74:
 131:Core/Src/aes.c ****         for (int i = 0; i < 16; i++) {
 876              		.loc 1 131 9 is_stmt 1 view .LVU285
 877              	.LBB20:
 878              		.loc 1 131 14 view .LVU286
 879              		.loc 1 131 9 is_stmt 0 view .LVU287
 880 0046 22E0     		b	.L49
 881              	.LVL75:
 882              	.L64:
 883              		.loc 1 131 9 view .LVU288
 884              	.LBE20:
 885              	.LBE19:
 118:Core/Src/aes.c ****     int flag_complete;
 886              		.loc 1 118 9 view .LVU289
 887 0048 0F33     		adds	r3, r3, #15
 888 004a E9E7     		b	.L43
 889              	.LVL76:
 890              	.L58:
 120:Core/Src/aes.c ****     else flag_complete = (len % 16 == 0);
 891              		.loc 1 120 21 view .LVU290
 892 004c 0126     		movs	r6, #1
 893 004e EFE7     		b	.L44
 894              	.LVL77:
 895              	.L47:
 896              	.LBB24:
 128:Core/Src/aes.c ****     } else {
 897              		.loc 1 128 38 is_stmt 1 discriminator 3 view .LVU291
 128:Core/Src/aes.c ****     } else {
 898              		.loc 1 128 65 is_stmt 0 discriminator 3 view .LVU292
 899 0050 03EB0C02 		add	r2, r3, ip
 128:Core/Src/aes.c ****     } else {
 900              		.loc 1 128 53 discriminator 3 view .LVU293
 901 0054 AA5C     		ldrb	r2, [r5, r2]	@ zero_extendqisi2
 128:Core/Src/aes.c ****     } else {
 902              		.loc 1 128 74 discriminator 3 view .LVU294
 903 0056 03F1F001 		add	r1, r3, #240
 904 005a 6944     		add	r1, sp, r1
ARM GAS  /tmp/ccndHvKY.s 			page 23


 905 005c 11F8C00C 		ldrb	r0, [r1, #-192]	@ zero_extendqisi2
 128:Core/Src/aes.c ****     } else {
 906              		.loc 1 128 48 discriminator 3 view .LVU295
 907 0060 4240     		eors	r2, r2, r0
 908 0062 01F8F02C 		strb	r2, [r1, #-240]
 128:Core/Src/aes.c ****     } else {
 909              		.loc 1 128 33 is_stmt 1 discriminator 3 view .LVU296
 128:Core/Src/aes.c ****     } else {
 910              		.loc 1 128 34 is_stmt 0 discriminator 3 view .LVU297
 911 0066 0133     		adds	r3, r3, #1
 912              	.LVL78:
 913              	.L45:
 128:Core/Src/aes.c ****     } else {
 914              		.loc 1 128 25 is_stmt 1 discriminator 1 view .LVU298
 128:Core/Src/aes.c ****     } else {
 915              		.loc 1 128 9 is_stmt 0 discriminator 1 view .LVU299
 916 0068 0F2B     		cmp	r3, #15
 917 006a F1DD     		ble	.L47
 918              	.LVL79:
 919              	.L48:
 128:Core/Src/aes.c ****     } else {
 920              		.loc 1 128 9 discriminator 1 view .LVU300
 921              	.LBE24:
 922              	.LBB25:
 923              	.LBB26:
 132:Core/Src/aes.c ****             uint8_t b;
 133:Core/Src/aes.c ****             if (i < rem)       b = msg[last_start + i];
 134:Core/Src/aes.c ****             else if (i == rem) b = 0x80;
 135:Core/Src/aes.c ****             else               b = 0x00;
 136:Core/Src/aes.c ****             M_last[i] = b ^ k2[i];
 137:Core/Src/aes.c ****         }
 138:Core/Src/aes.c ****     }
 139:Core/Src/aes.c **** 
 140:Core/Src/aes.c ****     for (int i = 0; i < n - 1; i++) {
 141:Core/Src/aes.c ****         for (int j = 0; j < 16; j++) X[j] ^= msg[i * 16 + j];
 924              		.loc 1 141 18 discriminator 1 view .LVU301
 925 006c 0024     		movs	r4, #0
 926 006e 2CE0     		b	.L53
 927              	.LVL80:
 928              	.L59:
 929              		.loc 1 141 18 discriminator 1 view .LVU302
 930              	.LBE26:
 931              	.LBE25:
 932              	.LBB29:
 128:Core/Src/aes.c ****     } else {
 933              		.loc 1 128 18 view .LVU303
 934 0070 0023     		movs	r3, #0
 935              	.LVL81:
 128:Core/Src/aes.c ****     } else {
 936              		.loc 1 128 18 view .LVU304
 937 0072 F9E7     		b	.L45
 938              	.LVL82:
 939              	.L50:
 128:Core/Src/aes.c ****     } else {
 940              		.loc 1 128 18 view .LVU305
 941              	.LBE29:
 942              	.LBB30:
ARM GAS  /tmp/ccndHvKY.s 			page 24


 943              	.LBB23:
 944              	.LBB21:
 134:Core/Src/aes.c ****             else               b = 0x00;
 945              		.loc 1 134 18 is_stmt 1 view .LVU306
 134:Core/Src/aes.c ****             else               b = 0x00;
 946              		.loc 1 134 21 is_stmt 0 view .LVU307
 947 0074 8342     		cmp	r3, r0
 948 0076 12D0     		beq	.L65
 135:Core/Src/aes.c ****             M_last[i] = b ^ k2[i];
 949              		.loc 1 135 34 view .LVU308
 950 0078 0024     		movs	r4, #0
 951              	.L51:
 952              	.LVL83:
 136:Core/Src/aes.c ****         }
 953              		.loc 1 136 13 is_stmt 1 discriminator 2 view .LVU309
 136:Core/Src/aes.c ****         }
 954              		.loc 1 136 31 is_stmt 0 discriminator 2 view .LVU310
 955 007a 03F1F002 		add	r2, r3, #240
 956 007e 0DEB0201 		add	r1, sp, r2
 957 0082 11F8D02C 		ldrb	r2, [r1, #-208]	@ zero_extendqisi2
 136:Core/Src/aes.c ****         }
 958              		.loc 1 136 23 discriminator 2 view .LVU311
 959 0086 6240     		eors	r2, r2, r4
 960 0088 01F8F02C 		strb	r2, [r1, #-240]
 961              	.LBE21:
 131:Core/Src/aes.c ****             uint8_t b;
 962              		.loc 1 131 33 is_stmt 1 discriminator 2 view .LVU312
 131:Core/Src/aes.c ****             uint8_t b;
 963              		.loc 1 131 34 is_stmt 0 discriminator 2 view .LVU313
 964 008c 0133     		adds	r3, r3, #1
 965              	.LVL84:
 966              	.L49:
 131:Core/Src/aes.c ****             uint8_t b;
 967              		.loc 1 131 25 is_stmt 1 discriminator 1 view .LVU314
 131:Core/Src/aes.c ****             uint8_t b;
 968              		.loc 1 131 9 is_stmt 0 discriminator 1 view .LVU315
 969 008e 0F2B     		cmp	r3, #15
 970 0090 ECDC     		bgt	.L48
 971              	.LBB22:
 132:Core/Src/aes.c ****             if (i < rem)       b = msg[last_start + i];
 972              		.loc 1 132 13 is_stmt 1 view .LVU316
 133:Core/Src/aes.c ****             else if (i == rem) b = 0x80;
 973              		.loc 1 133 13 view .LVU317
 133:Core/Src/aes.c ****             else if (i == rem) b = 0x80;
 974              		.loc 1 133 16 is_stmt 0 view .LVU318
 975 0092 8342     		cmp	r3, r0
 976 0094 EEDA     		bge	.L50
 133:Core/Src/aes.c ****             else if (i == rem) b = 0x80;
 977              		.loc 1 133 32 is_stmt 1 discriminator 1 view .LVU319
 133:Core/Src/aes.c ****             else if (i == rem) b = 0x80;
 978              		.loc 1 133 51 is_stmt 0 discriminator 1 view .LVU320
 979 0096 03EB0C02 		add	r2, r3, ip
 133:Core/Src/aes.c ****             else if (i == rem) b = 0x80;
 980              		.loc 1 133 34 discriminator 1 view .LVU321
 981 009a AC5C     		ldrb	r4, [r5, r2]	@ zero_extendqisi2
 982              	.LVL85:
 133:Core/Src/aes.c ****             else if (i == rem) b = 0x80;
ARM GAS  /tmp/ccndHvKY.s 			page 25


 983              		.loc 1 133 34 discriminator 1 view .LVU322
 984 009c EDE7     		b	.L51
 985              	.LVL86:
 986              	.L65:
 134:Core/Src/aes.c ****             else               b = 0x00;
 987              		.loc 1 134 34 view .LVU323
 988 009e 8024     		movs	r4, #128
 989 00a0 EBE7     		b	.L51
 990              	.LVL87:
 991              	.L54:
 134:Core/Src/aes.c ****             else               b = 0x00;
 992              		.loc 1 134 34 view .LVU324
 993              	.LBE22:
 994              	.LBE23:
 995              	.LBE30:
 996              	.LBB31:
 997              	.LBB27:
 998              		.loc 1 141 38 is_stmt 1 discriminator 3 view .LVU325
 999              		.loc 1 141 57 is_stmt 0 discriminator 3 view .LVU326
 1000 00a2 02EB0413 		add	r3, r2, r4, lsl #4
 1001              		.loc 1 141 49 discriminator 3 view .LVU327
 1002 00a6 E85C     		ldrb	r0, [r5, r3]	@ zero_extendqisi2
 1003              		.loc 1 141 43 discriminator 3 view .LVU328
 1004 00a8 02F1F003 		add	r3, r2, #240
 1005 00ac 0DEB030C 		add	ip, sp, r3
 1006 00b0 1CF8E03C 		ldrb	r3, [ip, #-224]	@ zero_extendqisi2
 1007 00b4 5840     		eors	r0, r0, r3
 1008 00b6 0CF8E00C 		strb	r0, [ip, #-224]
 1009              		.loc 1 141 33 is_stmt 1 discriminator 3 view .LVU329
 1010              		.loc 1 141 34 is_stmt 0 discriminator 3 view .LVU330
 1011 00ba 0132     		adds	r2, r2, #1
 1012              	.LVL88:
 1013              	.L55:
 1014              		.loc 1 141 25 is_stmt 1 discriminator 1 view .LVU331
 1015              		.loc 1 141 9 is_stmt 0 discriminator 1 view .LVU332
 1016 00bc 0F2A     		cmp	r2, #15
 1017 00be F0DD     		ble	.L54
 1018              	.LBE27:
 142:Core/Src/aes.c ****         aes_encrypt_block(rk, X);
 1019              		.loc 1 142 9 is_stmt 1 discriminator 2 view .LVU333
 1020 00c0 04A9     		add	r1, sp, #16
 1021 00c2 10A8     		add	r0, sp, #64
 1022 00c4 FFF7FEFF 		bl	aes_encrypt_block
 1023              	.LVL89:
 140:Core/Src/aes.c ****         for (int j = 0; j < 16; j++) X[j] ^= msg[i * 16 + j];
 1024              		.loc 1 140 32 discriminator 2 view .LVU334
 140:Core/Src/aes.c ****         for (int j = 0; j < 16; j++) X[j] ^= msg[i * 16 + j];
 1025              		.loc 1 140 33 is_stmt 0 discriminator 2 view .LVU335
 1026 00c8 0134     		adds	r4, r4, #1
 1027              	.LVL90:
 1028              	.L53:
 140:Core/Src/aes.c ****         for (int j = 0; j < 16; j++) X[j] ^= msg[i * 16 + j];
 1029              		.loc 1 140 21 is_stmt 1 discriminator 1 view .LVU336
 140:Core/Src/aes.c ****         for (int j = 0; j < 16; j++) X[j] ^= msg[i * 16 + j];
 1030              		.loc 1 140 5 is_stmt 0 discriminator 1 view .LVU337
 1031 00ca A642     		cmp	r6, r4
 1032 00cc 01DD     		ble	.L66
ARM GAS  /tmp/ccndHvKY.s 			page 26


 1033              	.LBB28:
 141:Core/Src/aes.c ****         aes_encrypt_block(rk, X);
 1034              		.loc 1 141 18 view .LVU338
 1035 00ce 0022     		movs	r2, #0
 1036 00d0 F4E7     		b	.L55
 1037              	.L66:
 1038              	.LBE28:
 1039              	.LBE31:
 1040              	.LBB32:
 143:Core/Src/aes.c ****     }
 144:Core/Src/aes.c ****     for (int j = 0; j < 16; j++) X[j] ^= M_last[j];
 1041              		.loc 1 144 14 view .LVU339
 1042 00d2 0023     		movs	r3, #0
 1043 00d4 0AE0     		b	.L56
 1044              	.LVL91:
 1045              	.L57:
 1046              		.loc 1 144 34 is_stmt 1 discriminator 3 view .LVU340
 1047              		.loc 1 144 48 is_stmt 0 discriminator 3 view .LVU341
 1048 00d6 03F1F002 		add	r2, r3, #240
 1049 00da 6A44     		add	r2, sp, r2
 1050 00dc 12F8F01C 		ldrb	r1, [r2, #-240]	@ zero_extendqisi2
 1051              		.loc 1 144 39 discriminator 3 view .LVU342
 1052 00e0 12F8E00C 		ldrb	r0, [r2, #-224]	@ zero_extendqisi2
 1053 00e4 4140     		eors	r1, r1, r0
 1054 00e6 02F8E01C 		strb	r1, [r2, #-224]
 1055              		.loc 1 144 29 is_stmt 1 discriminator 3 view .LVU343
 1056              		.loc 1 144 30 is_stmt 0 discriminator 3 view .LVU344
 1057 00ea 0133     		adds	r3, r3, #1
 1058              	.LVL92:
 1059              	.L56:
 1060              		.loc 1 144 21 is_stmt 1 discriminator 1 view .LVU345
 1061              		.loc 1 144 5 is_stmt 0 discriminator 1 view .LVU346
 1062 00ec 0F2B     		cmp	r3, #15
 1063 00ee F2DD     		ble	.L57
 1064              	.LBE32:
 145:Core/Src/aes.c ****     aes_encrypt_block(rk, X);
 1065              		.loc 1 145 5 is_stmt 1 view .LVU347
 1066 00f0 04A9     		add	r1, sp, #16
 1067 00f2 10A8     		add	r0, sp, #64
 1068 00f4 FFF7FEFF 		bl	aes_encrypt_block
 1069              	.LVL93:
 146:Core/Src/aes.c ****     memcpy(mac, X, 16);
 1070              		.loc 1 146 5 view .LVU348
 1071 00f8 04AC     		add	r4, sp, #16
 1072              	.LVL94:
 1073              		.loc 1 146 5 is_stmt 0 view .LVU349
 1074 00fa 0FCC     		ldmia	r4!, {r0, r1, r2, r3}
 1075 00fc 3860     		str	r0, [r7]	@ unaligned
 1076 00fe 7960     		str	r1, [r7, #4]	@ unaligned
 1077 0100 BA60     		str	r2, [r7, #8]	@ unaligned
 1078 0102 FB60     		str	r3, [r7, #12]	@ unaligned
 147:Core/Src/aes.c **** }...
 1079              		.loc 1 147 1 view .LVU350
 1080 0104 3DB0     		add	sp, sp, #244
 1081              	.LCFI12:
 1082              		.cfi_def_cfa_offset 20
 1083              		@ sp needed
ARM GAS  /tmp/ccndHvKY.s 			page 27


 1084 0106 F0BD     		pop	{r4, r5, r6, r7, pc}
 1085              		.loc 1 147 1 view .LVU351
 1086              		.cfi_endproc
 1087              	.LFE5:
 1089              		.section	.rodata.aes_rcon,"a"
 1090              		.align	2
 1091              		.set	.LANCHOR1,. + 0
 1094              	aes_rcon:
 1095 0000 00010204 		.ascii	"\000\001\002\004\010\020 @\200\0336"
 1095      08102040 
 1095      801B36
 1096              		.section	.rodata.aes_sbox,"a"
 1097              		.align	2
 1098              		.set	.LANCHOR0,. + 0
 1101              	aes_sbox:
 1102 0000 637C777B 		.ascii	"c|w{\362ko\3050\001g+\376\327\253v\312\202\311}\372"
 1102      F26B6FC5 
 1102      3001672B 
 1102      FED7AB76 
 1102      CA82C97D 
 1103 0015 5947F0AD 		.ascii	"YG\360\255\324\242\257\234\244r\300\267\375\223&6?\367"
 1103      D4A2AF9C 
 1103      A472C0B7 
 1103      FD932636 
 1103      3FF7
 1104 0027 CC34A5E5 		.ascii	"\3144\245\345\361q\3301\025\004\307#\303\030\226\005"
 1104      F171D831 
 1104      1504C723 
 1104      C3189605 
 1105 0037 9A071280 		.ascii	"\232\007\022\200\342\353'\262u\011\203,\032\033nZ\240"
 1105      E2EB27B2 
 1105      7509832C 
 1105      1A1B6E5A 
 1105      A0
 1106 0048 523BD6B3 		.ascii	"R;\326\263)\343/\204S\321\000\355 \374\261[j\313\276"
 1106      29E32F84 
 1106      53D100ED 
 1106      20FCB15B 
 1106      6ACBBE
 1107 005b 394A4C58 		.ascii	"9JLX\317\320\357\252\373CM3\205E\371\002\177P<\237\250"
 1107      CFD0EFAA 
 1107      FB434D33 
 1107      8545F902 
 1107      7F503C9F 
 1108 0070 51A3408F 		.ascii	"Q\243@\217\222\2358\365\274\266\332!\020\377\363\322"
 1108      929D38F5 
 1108      BCB6DA21 
 1108      10FFF3D2 
 1109 0080 CD0C13EC 		.ascii	"\315\014\023\354_\227D\027\304\247~=d]\031s`\201O\334"
 1109      5F974417 
 1109      C4A77E3D 
 1109      645D1973 
 1109      60814FDC 
 1110 0094 222A9088 		.ascii	"\"*\220\210F\356\270\024\336^\013\333\3402:\012I\006"
 1110      46EEB814 
 1110      DE5E0BDB 
 1110      E0323A0A 
ARM GAS  /tmp/ccndHvKY.s 			page 28


 1110      4906
 1111 00a6 245CC2D3 		.ascii	"$\\\302\323\254b\221\225\344y\347\3107m\215\325N\251"
 1111      AC629195 
 1111      E479E7C8 
 1111      376D8DD5 
 1111      4EA9
 1112 00b8 6C56F4EA 		.ascii	"lV\364\352ez\256\010\272x%.\034\246\264\306\350\335"
 1112      657AAE08 
 1112      BA78252E 
 1112      1CA6B4C6 
 1112      E8DD
 1113 00ca 741F4BBD 		.ascii	"t\037K\275\213\212p>\265fH\003\366\016a5W\271\206\301"
 1113      8B8A703E 
 1113      B5664803 
 1113      F60E6135 
 1113      57B986C1 
 1114 00de 1D9EE1F8 		.ascii	"\035\236\341\370\230\021i\331\216\224\233\036\207\351"
 1114      981169D9 
 1114      8E949B1E 
 1114      87E9
 1115 00ec CE5528DF 		.ascii	"\316U(\337\214\241\211\015\277\346BhA\231-\017\260T"
 1115      8CA1890D 
 1115      BFE64268 
 1115      41992D0F 
 1115      B054
 1116 00fe BB16     		.ascii	"\273\026"
 1117              		.text
 1118              	.Letext0:
 1119              		.file 2 "/usr/lib/gcc/arm-none-eabi/10.3.1/include/stdint.h"
ARM GAS  /tmp/ccndHvKY.s 			page 29

