ARM GAS  /tmp/ccxe0c4o.s 			page 1


   1              		.cpu cortex-m3
   2              		.eabi_attribute 20, 1
   3              		.eabi_attribute 21, 1
   4              		.eabi_attribute 23, 3
   5              		.eabi_attribute 24, 1
   6              		.eabi_attribute 25, 1
   7              		.eabi_attribute 26, 1
   8              		.eabi_attribute 30, 1
   9              		.eabi_attribute 34, 1
  10              		.eabi_attribute 18, 4
  11              		.file	"main.c"
  12              		.text
  13              	.Ltext0:
  14              		.cfi_sections	.debug_frame
  15              		.section	.text.xtime,"ax",%progbits
  16              		.align	1
  17              		.arch armv7-m
  18              		.syntax unified
  19              		.thumb
  20              		.thumb_func
  21              		.fpu softvfp
  23              	xtime:
  24              	.LVL0:
  25              	.LFB65:
  26              		.file 1 "Core/Src/main.c"
   1:Core/Src/main.c **** /* USER CODE BEGIN Header */
   2:Core/Src/main.c **** /**
   3:Core/Src/main.c ****   * @file    main.c
   4:Core/Src/main.c ****   * @brief   SX1262 (Ra-01SH) — LoRaWAN ABP uplink "HI" с AES (MIC + шифрование).
   5:Core/Src/main.c ****   *          868.1 МГц, SF12 BW125, 22 dBm, LDO.
   6:Core/Src/main.c ****   */
   7:Core/Src/main.c **** /* USER CODE END Header */
   8:Core/Src/main.c **** #include "main.h"
   9:Core/Src/main.c **** #include <string.h>
  10:Core/Src/main.c **** 
  11:Core/Src/main.c **** SPI_HandleTypeDef hspi1;
  12:Core/Src/main.c **** 
  13:Core/Src/main.c **** /* USER CODE BEGIN PV */
  14:Core/Src/main.c **** volatile uint8_t  sx_status     = 0;
  15:Core/Src/main.c **** volatile uint8_t  reg320        = 0;
  16:Core/Src/main.c **** volatile uint8_t  err_lsb       = 0;
  17:Core/Src/main.c **** volatile uint8_t  mode_after_tx = 0;
  18:Core/Src/main.c **** volatile uint8_t  tx_reached    = 0;
  19:Core/Src/main.c **** volatile uint32_t tx_count      = 0;
  20:Core/Src/main.c **** 
  21:Core/Src/main.c **** /* ====== LoRaWAN ABP параметры (СОВПАДАЮТ с ChirpStack) ====== */
  22:Core/Src/main.c **** /* DevAddr 00886B53 — в кадре идёт little-endian: 53 6B 88 00 */
  23:Core/Src/main.c **** static const uint8_t DEVADDR[4] = {0x00,0x88,0x6B,0x53};   /* big-endian запись */
  24:Core/Src/main.c **** 
  25:Core/Src/main.c **** /* NwkSKey = 00112233445566778899AABBCCDDEEFF */
  26:Core/Src/main.c **** static const uint8_t NWKSKEY[16] = {
  27:Core/Src/main.c ****     0x00,0x11,0x22,0x33,0x44,0x55,0x66,0x77,
  28:Core/Src/main.c ****     0x88,0x99,0xAA,0xBB,0xCC,0xDD,0xEE,0xFF
  29:Core/Src/main.c **** };
  30:Core/Src/main.c **** /* AppSKey = 0102030405060708090A0B0C0D0E0F10 */
  31:Core/Src/main.c **** static const uint8_t APPSKEY[16] = {
  32:Core/Src/main.c ****     0x01,0x02,0x03,0x04,0x05,0x06,0x07,0x08,
ARM GAS  /tmp/ccxe0c4o.s 			page 2


  33:Core/Src/main.c ****     0x09,0x0A,0x0B,0x0C,0x0D,0x0E,0x0F,0x10
  34:Core/Src/main.c **** };
  35:Core/Src/main.c **** 
  36:Core/Src/main.c **** static uint32_t fcnt_up = 0;   /* счётчик кадров uplink */
  37:Core/Src/main.c **** /* USER CODE END PV */
  38:Core/Src/main.c **** 
  39:Core/Src/main.c **** void SystemClock_Config(void);
  40:Core/Src/main.c **** static void MX_GPIO_Init(void);
  41:Core/Src/main.c **** static void MX_SPI1_Init(void);
  42:Core/Src/main.c **** 
  43:Core/Src/main.c **** /* ============================================================
  44:Core/Src/main.c ****  *                    AES-128 (компактный)
  45:Core/Src/main.c ****  * ============================================================ */
  46:Core/Src/main.c **** /* USER CODE BEGIN AES */
  47:Core/Src/main.c **** static const uint8_t aes_sbox[256] = {
  48:Core/Src/main.c **** 0x63,0x7c,0x77,0x7b,0xf2,0x6b,0x6f,0xc5,0x30,0x01,0x67,0x2b,0xfe,0xd7,0xab,0x76,
  49:Core/Src/main.c **** 0xca,0x82,0xc9,0x7d,0xfa,0x59,0x47,0xf0,0xad,0xd4,0xa2,0xaf,0x9c,0xa4,0x72,0xc0,
  50:Core/Src/main.c **** 0xb7,0xfd,0x93,0x26,0x36,0x3f,0xf7,0xcc,0x34,0xa5,0xe5,0xf1,0x71,0xd8,0x31,0x15,
  51:Core/Src/main.c **** 0x04,0xc7,0x23,0xc3,0x18,0x96,0x05,0x9a,0x07,0x12,0x80,0xe2,0xeb,0x27,0xb2,0x75,
  52:Core/Src/main.c **** 0x09,0x83,0x2c,0x1a,0x1b,0x6e,0x5a,0xa0,0x52,0x3b,0xd6,0xb3,0x29,0xe3,0x2f,0x84,
  53:Core/Src/main.c **** 0x53,0xd1,0x00,0xed,0x20,0xfc,0xb1,0x5b,0x6a,0xcb,0xbe,0x39,0x4a,0x4c,0x58,0xcf,
  54:Core/Src/main.c **** 0xd0,0xef,0xaa,0xfb,0x43,0x4d,0x33,0x85,0x45,0xf9,0x02,0x7f,0x50,0x3c,0x9f,0xa8,
  55:Core/Src/main.c **** 0x51,0xa3,0x40,0x8f,0x92,0x9d,0x38,0xf5,0xbc,0xb6,0xda,0x21,0x10,0xff,0xf3,0xd2,
  56:Core/Src/main.c **** 0xcd,0x0c,0x13,0xec,0x5f,0x97,0x44,0x17,0xc4,0xa7,0x7e,0x3d,0x64,0x5d,0x19,0x73,
  57:Core/Src/main.c **** 0x60,0x81,0x4f,0xdc,0x22,0x2a,0x90,0x88,0x46,0xee,0xb8,0x14,0xde,0x5e,0x0b,0xdb,
  58:Core/Src/main.c **** 0xe0,0x32,0x3a,0x0a,0x49,0x06,0x24,0x5c,0xc2,0xd3,0xac,0x62,0x91,0x95,0xe4,0x79,
  59:Core/Src/main.c **** 0xe7,0xc8,0x37,0x6d,0x8d,0xd5,0x4e,0xa9,0x6c,0x56,0xf4,0xea,0x65,0x7a,0xae,0x08,
  60:Core/Src/main.c **** 0xba,0x78,0x25,0x2e,0x1c,0xa6,0xb4,0xc6,0xe8,0xdd,0x74,0x1f,0x4b,0xbd,0x8b,0x8a,
  61:Core/Src/main.c **** 0x70,0x3e,0xb5,0x66,0x48,0x03,0xf6,0x0e,0x61,0x35,0x57,0xb9,0x86,0xc1,0x1d,0x9e,
  62:Core/Src/main.c **** 0xe1,0xf8,0x98,0x11,0x69,0xd9,0x8e,0x94,0x9b,0x1e,0x87,0xe9,0xce,0x55,0x28,0xdf,
  63:Core/Src/main.c **** 0x8c,0xa1,0x89,0x0d,0xbf,0xe6,0x42,0x68,0x41,0x99,0x2d,0x0f,0xb0,0x54,0xbb,0x16
  64:Core/Src/main.c **** };
  65:Core/Src/main.c **** 
  66:Core/Src/main.c **** static uint8_t aes_rcon[11] = {
  67:Core/Src/main.c **** 0x00,0x01,0x02,0x04,0x08,0x10,0x20,0x40,0x80,0x1b,0x36
  68:Core/Src/main.c **** };
  69:Core/Src/main.c **** 
  70:Core/Src/main.c **** static uint8_t xtime(uint8_t x){ return (uint8_t)((x<<1) ^ ((x>>7)*0x1b)); }
  27              		.loc 1 70 32 view -0
  28              		.cfi_startproc
  29              		@ args = 0, pretend = 0, frame = 0
  30              		@ frame_needed = 0, uses_anonymous_args = 0
  31              		@ link register save eliminated.
  32              		.loc 1 70 34 view .LVU1
  33              		.loc 1 70 58 is_stmt 0 view .LVU2
  34 0000 C309     		lsrs	r3, r0, #7
  35 0002 03EB4303 		add	r3, r3, r3, lsl #1
  36 0006 03EBC303 		add	r3, r3, r3, lsl #3
  37 000a 83EA4000 		eor	r0, r3, r0, lsl #1
  38              	.LVL1:
  39              		.loc 1 70 76 view .LVU3
  40 000e C0B2     		uxtb	r0, r0
  41 0010 7047     		bx	lr
  42              		.cfi_endproc
  43              	.LFE65:
  45              		.section	.text.aes_encrypt_block,"ax",%progbits
  46              		.align	1
ARM GAS  /tmp/ccxe0c4o.s 			page 3


  47              		.syntax unified
  48              		.thumb
  49              		.thumb_func
  50              		.fpu softvfp
  52              	aes_encrypt_block:
  53              	.LVL2:
  54              	.LFB67:
  71:Core/Src/main.c **** 
  72:Core/Src/main.c **** /* Расширение ключа: 11 round-ключей по 16 байт */
  73:Core/Src/main.c **** static void aes_key_expand(const uint8_t key[16], uint8_t rk[176])
  74:Core/Src/main.c **** {
  75:Core/Src/main.c ****     memcpy(rk, key, 16);
  76:Core/Src/main.c ****     uint8_t t[4];
  77:Core/Src/main.c ****     for (int i = 16; i < 176; i += 4) {
  78:Core/Src/main.c ****         memcpy(t, rk + i - 4, 4);
  79:Core/Src/main.c ****         if (i % 16 == 0) {
  80:Core/Src/main.c ****             uint8_t tmp = t[0];
  81:Core/Src/main.c ****             t[0] = aes_sbox[t[1]] ^ aes_rcon[i/16];
  82:Core/Src/main.c ****             t[1] = aes_sbox[t[2]];
  83:Core/Src/main.c ****             t[2] = aes_sbox[t[3]];
  84:Core/Src/main.c ****             t[3] = aes_sbox[tmp];
  85:Core/Src/main.c ****         }
  86:Core/Src/main.c ****         for (int j = 0; j < 4; j++)
  87:Core/Src/main.c ****             rk[i+j] = rk[i-16+j] ^ t[j];
  88:Core/Src/main.c ****     }
  89:Core/Src/main.c **** }
  90:Core/Src/main.c **** 
  91:Core/Src/main.c **** /* Шифрование одного блока 16 байт (in-place) */
  92:Core/Src/main.c **** static void aes_encrypt_block(const uint8_t rk[176], uint8_t s[16])
  93:Core/Src/main.c **** {
  55              		.loc 1 93 1 is_stmt 1 view -0
  56              		.cfi_startproc
  57              		@ args = 0, pretend = 0, frame = 8
  58              		@ frame_needed = 0, uses_anonymous_args = 0
  59              		.loc 1 93 1 is_stmt 0 view .LVU5
  60 0000 2DE9F04F 		push	{r4, r5, r6, r7, r8, r9, r10, fp, lr}
  61              	.LCFI0:
  62              		.cfi_def_cfa_offset 36
  63              		.cfi_offset 4, -36
  64              		.cfi_offset 5, -32
  65              		.cfi_offset 6, -28
  66              		.cfi_offset 7, -24
  67              		.cfi_offset 8, -20
  68              		.cfi_offset 9, -16
  69              		.cfi_offset 10, -12
  70              		.cfi_offset 11, -8
  71              		.cfi_offset 14, -4
  72 0004 83B0     		sub	sp, sp, #12
  73              	.LCFI1:
  74              		.cfi_def_cfa_offset 48
  75 0006 8246     		mov	r10, r0
  76 0008 0C46     		mov	r4, r1
  94:Core/Src/main.c ****     /* AddRoundKey 0 */
  95:Core/Src/main.c ****     for (int i=0;i<16;i++) s[i]^=rk[i];
  77              		.loc 1 95 5 is_stmt 1 view .LVU6
  78              	.LBB4:
  79              		.loc 1 95 10 view .LVU7
ARM GAS  /tmp/ccxe0c4o.s 			page 4


  80              	.LVL3:
  81              		.loc 1 95 14 is_stmt 0 view .LVU8
  82 000a 0023     		movs	r3, #0
  83              		.loc 1 95 5 view .LVU9
  84 000c 05E0     		b	.L3
  85              	.LVL4:
  86              	.L4:
  87              		.loc 1 95 28 is_stmt 1 discriminator 3 view .LVU10
  88              		.loc 1 95 36 is_stmt 0 discriminator 3 view .LVU11
  89 000e 1AF80320 		ldrb	r2, [r10, r3]	@ zero_extendqisi2
  90              		.loc 1 95 32 discriminator 3 view .LVU12
  91 0012 E15C     		ldrb	r1, [r4, r3]	@ zero_extendqisi2
  92 0014 4A40     		eors	r2, r2, r1
  93 0016 E254     		strb	r2, [r4, r3]
  94              		.loc 1 95 23 is_stmt 1 discriminator 3 view .LVU13
  95              		.loc 1 95 24 is_stmt 0 discriminator 3 view .LVU14
  96 0018 0133     		adds	r3, r3, #1
  97              	.LVL5:
  98              	.L3:
  99              		.loc 1 95 18 is_stmt 1 discriminator 1 view .LVU15
 100              		.loc 1 95 5 is_stmt 0 discriminator 1 view .LVU16
 101 001a 0F2B     		cmp	r3, #15
 102 001c F7DD     		ble	.L4
 103              	.LBE4:
 104              	.LBB5:
  96:Core/Src/main.c **** 
  97:Core/Src/main.c ****     for (int round=1; round<10; round++){
 105              		.loc 1 97 14 view .LVU17
 106 001e 4FF0010B 		mov	fp, #1
 107 0022 6AE0     		b	.L5
 108              	.LVL6:
 109              	.L6:
 110              	.LBB6:
 111              	.LBB7:
  98:Core/Src/main.c ****         /* SubBytes */
  99:Core/Src/main.c ****         for(int i=0;i<16;i++) s[i]=aes_sbox[s[i]];
 112              		.loc 1 99 31 is_stmt 1 discriminator 3 view .LVU18
 113              		.loc 1 99 46 is_stmt 0 discriminator 3 view .LVU19
 114 0024 E25C     		ldrb	r2, [r4, r3]	@ zero_extendqisi2
 115              		.loc 1 99 44 discriminator 3 view .LVU20
 116 0026 4F49     		ldr	r1, .L19
 117 0028 8A5C     		ldrb	r2, [r1, r2]	@ zero_extendqisi2
 118              		.loc 1 99 35 discriminator 3 view .LVU21
 119 002a E254     		strb	r2, [r4, r3]
 120              		.loc 1 99 26 is_stmt 1 discriminator 3 view .LVU22
 121              		.loc 1 99 27 is_stmt 0 discriminator 3 view .LVU23
 122 002c 0133     		adds	r3, r3, #1
 123              	.LVL7:
 124              	.L11:
 125              		.loc 1 99 21 is_stmt 1 discriminator 1 view .LVU24
 126              		.loc 1 99 9 is_stmt 0 discriminator 1 view .LVU25
 127 002e 0F2B     		cmp	r3, #15
 128 0030 F8DD     		ble	.L6
 129              	.LBE7:
 100:Core/Src/main.c ****         /* ShiftRows */
 101:Core/Src/main.c ****         uint8_t t;
 130              		.loc 1 101 9 is_stmt 1 view .LVU26
ARM GAS  /tmp/ccxe0c4o.s 			page 5


 102:Core/Src/main.c ****         t=s[1];  s[1]=s[5];  s[5]=s[9];  s[9]=s[13];  s[13]=t;
 131              		.loc 1 102 9 view .LVU27
 132              		.loc 1 102 10 is_stmt 0 view .LVU28
 133 0032 6378     		ldrb	r3, [r4, #1]	@ zero_extendqisi2
 134              	.LVL8:
 135              		.loc 1 102 18 is_stmt 1 view .LVU29
 136              		.loc 1 102 22 is_stmt 0 view .LVU30
 137 0034 6279     		ldrb	r2, [r4, #5]	@ zero_extendqisi2
 138 0036 6270     		strb	r2, [r4, #1]
 139              		.loc 1 102 30 is_stmt 1 view .LVU31
 140              		.loc 1 102 34 is_stmt 0 view .LVU32
 141 0038 627A     		ldrb	r2, [r4, #9]	@ zero_extendqisi2
 142 003a 6271     		strb	r2, [r4, #5]
 143              		.loc 1 102 42 is_stmt 1 view .LVU33
 144              		.loc 1 102 46 is_stmt 0 view .LVU34
 145 003c 627B     		ldrb	r2, [r4, #13]	@ zero_extendqisi2
 146 003e 6272     		strb	r2, [r4, #9]
 147              		.loc 1 102 55 is_stmt 1 view .LVU35
 148              		.loc 1 102 60 is_stmt 0 view .LVU36
 149 0040 6373     		strb	r3, [r4, #13]
 103:Core/Src/main.c ****         t=s[2];  s[2]=s[10]; s[10]=t; t=s[6]; s[6]=s[14]; s[14]=t;
 150              		.loc 1 103 9 is_stmt 1 view .LVU37
 151              		.loc 1 103 10 is_stmt 0 view .LVU38
 152 0042 A378     		ldrb	r3, [r4, #2]	@ zero_extendqisi2
 153              	.LVL9:
 154              		.loc 1 103 18 is_stmt 1 view .LVU39
 155              		.loc 1 103 22 is_stmt 0 view .LVU40
 156 0044 A27A     		ldrb	r2, [r4, #10]	@ zero_extendqisi2
 157 0046 A270     		strb	r2, [r4, #2]
 158              		.loc 1 103 30 is_stmt 1 view .LVU41
 159              		.loc 1 103 35 is_stmt 0 view .LVU42
 160 0048 A372     		strb	r3, [r4, #10]
 161              		.loc 1 103 39 is_stmt 1 view .LVU43
 162              		.loc 1 103 40 is_stmt 0 view .LVU44
 163 004a A379     		ldrb	r3, [r4, #6]	@ zero_extendqisi2
 164              	.LVL10:
 165              		.loc 1 103 47 is_stmt 1 view .LVU45
 166              		.loc 1 103 51 is_stmt 0 view .LVU46
 167 004c A27B     		ldrb	r2, [r4, #14]	@ zero_extendqisi2
 168 004e A271     		strb	r2, [r4, #6]
 169              		.loc 1 103 59 is_stmt 1 view .LVU47
 170              		.loc 1 103 64 is_stmt 0 view .LVU48
 171 0050 A373     		strb	r3, [r4, #14]
 104:Core/Src/main.c ****         t=s[15]; s[15]=s[11];s[11]=s[7];s[7]=s[3];  s[3]=t;
 172              		.loc 1 104 9 is_stmt 1 view .LVU49
 173              		.loc 1 104 10 is_stmt 0 view .LVU50
 174 0052 E37B     		ldrb	r3, [r4, #15]	@ zero_extendqisi2
 175              	.LVL11:
 176              		.loc 1 104 18 is_stmt 1 view .LVU51
 177              		.loc 1 104 23 is_stmt 0 view .LVU52
 178 0054 E27A     		ldrb	r2, [r4, #11]	@ zero_extendqisi2
 179 0056 E273     		strb	r2, [r4, #15]
 180              		.loc 1 104 30 is_stmt 1 view .LVU53
 181              		.loc 1 104 35 is_stmt 0 view .LVU54
 182 0058 E279     		ldrb	r2, [r4, #7]	@ zero_extendqisi2
 183 005a E272     		strb	r2, [r4, #11]
 184              		.loc 1 104 41 is_stmt 1 view .LVU55
ARM GAS  /tmp/ccxe0c4o.s 			page 6


 185              		.loc 1 104 45 is_stmt 0 view .LVU56
 186 005c E278     		ldrb	r2, [r4, #3]	@ zero_extendqisi2
 187 005e E271     		strb	r2, [r4, #7]
 188              		.loc 1 104 53 is_stmt 1 view .LVU57
 189              		.loc 1 104 57 is_stmt 0 view .LVU58
 190 0060 E370     		strb	r3, [r4, #3]
 105:Core/Src/main.c ****         /* MixColumns */
 106:Core/Src/main.c ****         for(int c=0;c<4;c++){
 191              		.loc 1 106 9 is_stmt 1 view .LVU59
 192              	.LBB8:
 193              		.loc 1 106 13 view .LVU60
 194              	.LVL12:
 195              		.loc 1 106 17 is_stmt 0 view .LVU61
 196 0062 4FF00009 		mov	r9, #0
 197              		.loc 1 106 9 view .LVU62
 198 0066 37E0     		b	.L7
 199              	.LVL13:
 200              	.L8:
 201              	.LBB9:
 107:Core/Src/main.c ****             uint8_t *col=s+c*4;
 202              		.loc 1 107 13 is_stmt 1 discriminator 3 view .LVU63
 203              		.loc 1 107 22 is_stmt 0 discriminator 3 view .LVU64
 204 0068 04EB8905 		add	r5, r4, r9, lsl #2
 205              	.LVL14:
 108:Core/Src/main.c ****             uint8_t a0=col[0],a1=col[1],a2=col[2],a3=col[3];
 206              		.loc 1 108 13 is_stmt 1 discriminator 3 view .LVU65
 207              		.loc 1 108 21 is_stmt 0 discriminator 3 view .LVU66
 208 006c 14F82920 		ldrb	r2, [r4, r9, lsl #2]	@ zero_extendqisi2
 209              	.LVL15:
 210              		.loc 1 108 31 discriminator 3 view .LVU67
 211 0070 6978     		ldrb	r1, [r5, #1]	@ zero_extendqisi2
 212              	.LVL16:
 213              		.loc 1 108 41 discriminator 3 view .LVU68
 214 0072 95F80280 		ldrb	r8, [r5, #2]	@ zero_extendqisi2
 215              	.LVL17:
 216              		.loc 1 108 51 discriminator 3 view .LVU69
 217 0076 EE78     		ldrb	r6, [r5, #3]	@ zero_extendqisi2
 218              	.LVL18:
 109:Core/Src/main.c ****             uint8_t h=a0^a1^a2^a3;
 219              		.loc 1 109 13 is_stmt 1 discriminator 3 view .LVU70
 220              		.loc 1 109 21 is_stmt 0 discriminator 3 view .LVU71
 221 0078 0092     		str	r2, [sp]
 222 007a 0191     		str	r1, [sp, #4]
 223 007c 82EA0100 		eor	r0, r2, r1
 224 0080 80EA0807 		eor	r7, r0, r8
 225 0084 7740     		eors	r7, r7, r6
 226              	.LVL19:
 110:Core/Src/main.c ****             col[0]^=h^xtime(a0^a1);
 227              		.loc 1 110 13 is_stmt 1 discriminator 3 view .LVU72
 228              		.loc 1 110 23 is_stmt 0 discriminator 3 view .LVU73
 229 0086 FFF7FEFF 		bl	xtime
 230              	.LVL20:
 231              		.loc 1 110 22 discriminator 3 view .LVU74
 232 008a 80EA0703 		eor	r3, r0, r7
 233 008e DBB2     		uxtb	r3, r3
 234              		.loc 1 110 19 discriminator 3 view .LVU75
 235 0090 009A     		ldr	r2, [sp]
ARM GAS  /tmp/ccxe0c4o.s 			page 7


 236 0092 5340     		eors	r3, r3, r2
 237 0094 04F82930 		strb	r3, [r4, r9, lsl #2]
 111:Core/Src/main.c ****             col[1]^=h^xtime(a1^a2);
 238              		.loc 1 111 13 is_stmt 1 discriminator 3 view .LVU76
 239              		.loc 1 111 23 is_stmt 0 discriminator 3 view .LVU77
 240 0098 0199     		ldr	r1, [sp, #4]
 241 009a 81EA0800 		eor	r0, r1, r8
 242 009e FFF7FEFF 		bl	xtime
 243              	.LVL21:
 244              		.loc 1 111 22 discriminator 3 view .LVU78
 245 00a2 80EA0703 		eor	r3, r0, r7
 246 00a6 DBB2     		uxtb	r3, r3
 247              		.loc 1 111 19 discriminator 3 view .LVU79
 248 00a8 0199     		ldr	r1, [sp, #4]
 249 00aa 4B40     		eors	r3, r3, r1
 250 00ac 6B70     		strb	r3, [r5, #1]
 112:Core/Src/main.c ****             col[2]^=h^xtime(a2^a3);
 251              		.loc 1 112 13 is_stmt 1 discriminator 3 view .LVU80
 252              		.loc 1 112 23 is_stmt 0 discriminator 3 view .LVU81
 253 00ae 88EA0600 		eor	r0, r8, r6
 254 00b2 FFF7FEFF 		bl	xtime
 255              	.LVL22:
 256              		.loc 1 112 22 discriminator 3 view .LVU82
 257 00b6 7840     		eors	r0, r0, r7
 258 00b8 C0B2     		uxtb	r0, r0
 259              		.loc 1 112 19 discriminator 3 view .LVU83
 260 00ba 88EA0008 		eor	r8, r8, r0
 261              	.LVL23:
 262              		.loc 1 112 19 discriminator 3 view .LVU84
 263 00be 85F80280 		strb	r8, [r5, #2]
 113:Core/Src/main.c ****             col[3]^=h^xtime(a3^a0);
 264              		.loc 1 113 13 is_stmt 1 discriminator 3 view .LVU85
 265              		.loc 1 113 23 is_stmt 0 discriminator 3 view .LVU86
 266 00c2 009A     		ldr	r2, [sp]
 267 00c4 82EA0600 		eor	r0, r2, r6
 268 00c8 FFF7FEFF 		bl	xtime
 269              	.LVL24:
 270              		.loc 1 113 22 discriminator 3 view .LVU87
 271 00cc 4740     		eors	r7, r7, r0
 272              	.LVL25:
 273              		.loc 1 113 22 discriminator 3 view .LVU88
 274 00ce FFB2     		uxtb	r7, r7
 275              		.loc 1 113 19 discriminator 3 view .LVU89
 276 00d0 7E40     		eors	r6, r6, r7
 277              	.LVL26:
 278              		.loc 1 113 19 discriminator 3 view .LVU90
 279 00d2 EE70     		strb	r6, [r5, #3]
 280              	.LBE9:
 106:Core/Src/main.c ****             uint8_t *col=s+c*4;
 281              		.loc 1 106 25 is_stmt 1 discriminator 3 view .LVU91
 106:Core/Src/main.c ****             uint8_t *col=s+c*4;
 282              		.loc 1 106 26 is_stmt 0 discriminator 3 view .LVU92
 283 00d4 09F10109 		add	r9, r9, #1
 284              	.LVL27:
 285              	.L7:
 106:Core/Src/main.c ****             uint8_t *col=s+c*4;
 286              		.loc 1 106 21 is_stmt 1 discriminator 1 view .LVU93
ARM GAS  /tmp/ccxe0c4o.s 			page 8


 106:Core/Src/main.c ****             uint8_t *col=s+c*4;
 287              		.loc 1 106 9 is_stmt 0 discriminator 1 view .LVU94
 288 00d8 B9F1030F 		cmp	r9, #3
 289 00dc C4DD     		ble	.L8
 290              	.LBE8:
 291              	.LBB10:
 114:Core/Src/main.c ****         }
 115:Core/Src/main.c ****         /* AddRoundKey */
 116:Core/Src/main.c ****         for(int i=0;i<16;i++) s[i]^=rk[round*16+i];
 292              		.loc 1 116 17 view .LVU95
 293 00de 0023     		movs	r3, #0
 294 00e0 07E0     		b	.L9
 295              	.LVL28:
 296              	.L10:
 297              		.loc 1 116 31 is_stmt 1 discriminator 3 view .LVU96
 298              		.loc 1 116 48 is_stmt 0 discriminator 3 view .LVU97
 299 00e2 03EB0B12 		add	r2, r3, fp, lsl #4
 300              		.loc 1 116 39 discriminator 3 view .LVU98
 301 00e6 1AF80220 		ldrb	r2, [r10, r2]	@ zero_extendqisi2
 302              		.loc 1 116 35 discriminator 3 view .LVU99
 303 00ea E15C     		ldrb	r1, [r4, r3]	@ zero_extendqisi2
 304 00ec 4A40     		eors	r2, r2, r1
 305 00ee E254     		strb	r2, [r4, r3]
 306              		.loc 1 116 26 is_stmt 1 discriminator 3 view .LVU100
 307              		.loc 1 116 27 is_stmt 0 discriminator 3 view .LVU101
 308 00f0 0133     		adds	r3, r3, #1
 309              	.LVL29:
 310              	.L9:
 311              		.loc 1 116 21 is_stmt 1 discriminator 1 view .LVU102
 312              		.loc 1 116 9 is_stmt 0 discriminator 1 view .LVU103
 313 00f2 0F2B     		cmp	r3, #15
 314 00f4 F5DD     		ble	.L10
 315              	.LBE10:
 316              	.LBE6:
  97:Core/Src/main.c ****         /* SubBytes */
 317              		.loc 1 97 33 is_stmt 1 discriminator 2 view .LVU104
  97:Core/Src/main.c ****         /* SubBytes */
 318              		.loc 1 97 38 is_stmt 0 discriminator 2 view .LVU105
 319 00f6 0BF1010B 		add	fp, fp, #1
 320              	.LVL30:
 321              	.L5:
  97:Core/Src/main.c ****         /* SubBytes */
 322              		.loc 1 97 23 is_stmt 1 discriminator 1 view .LVU106
  97:Core/Src/main.c ****         /* SubBytes */
 323              		.loc 1 97 5 is_stmt 0 discriminator 1 view .LVU107
 324 00fa BBF1090F 		cmp	fp, #9
 325 00fe 01DC     		bgt	.L18
 326              	.LBB12:
 327              	.LBB11:
  99:Core/Src/main.c ****         /* ShiftRows */
 328              		.loc 1 99 17 view .LVU108
 329 0100 0023     		movs	r3, #0
 330 0102 94E7     		b	.L11
 331              	.L18:
 332              	.LBE11:
 333              	.LBE12:
 334              	.LBE5:
ARM GAS  /tmp/ccxe0c4o.s 			page 9


 335              	.LBB13:
 117:Core/Src/main.c ****     }
 118:Core/Src/main.c ****     /* финальный раунд (без MixColumns) */
 119:Core/Src/main.c ****     for(int i=0;i<16;i++) s[i]=aes_sbox[s[i]];
 336              		.loc 1 119 13 view .LVU109
 337 0104 0023     		movs	r3, #0
 338 0106 04E0     		b	.L12
 339              	.LVL31:
 340              	.L13:
 341              		.loc 1 119 27 is_stmt 1 discriminator 3 view .LVU110
 342              		.loc 1 119 42 is_stmt 0 discriminator 3 view .LVU111
 343 0108 E25C     		ldrb	r2, [r4, r3]	@ zero_extendqisi2
 344              		.loc 1 119 40 discriminator 3 view .LVU112
 345 010a 1649     		ldr	r1, .L19
 346 010c 8A5C     		ldrb	r2, [r1, r2]	@ zero_extendqisi2
 347              		.loc 1 119 31 discriminator 3 view .LVU113
 348 010e E254     		strb	r2, [r4, r3]
 349              		.loc 1 119 22 is_stmt 1 discriminator 3 view .LVU114
 350              		.loc 1 119 23 is_stmt 0 discriminator 3 view .LVU115
 351 0110 0133     		adds	r3, r3, #1
 352              	.LVL32:
 353              	.L12:
 354              		.loc 1 119 17 is_stmt 1 discriminator 1 view .LVU116
 355              		.loc 1 119 5 is_stmt 0 discriminator 1 view .LVU117
 356 0112 0F2B     		cmp	r3, #15
 357 0114 F8DD     		ble	.L13
 358              	.LBE13:
 120:Core/Src/main.c ****     uint8_t t;
 359              		.loc 1 120 5 is_stmt 1 view .LVU118
 121:Core/Src/main.c ****     t=s[1];  s[1]=s[5];  s[5]=s[9];  s[9]=s[13];  s[13]=t;
 360              		.loc 1 121 5 view .LVU119
 361              		.loc 1 121 6 is_stmt 0 view .LVU120
 362 0116 6378     		ldrb	r3, [r4, #1]	@ zero_extendqisi2
 363              	.LVL33:
 364              		.loc 1 121 14 is_stmt 1 view .LVU121
 365              		.loc 1 121 18 is_stmt 0 view .LVU122
 366 0118 6279     		ldrb	r2, [r4, #5]	@ zero_extendqisi2
 367 011a 6270     		strb	r2, [r4, #1]
 368              		.loc 1 121 26 is_stmt 1 view .LVU123
 369              		.loc 1 121 30 is_stmt 0 view .LVU124
 370 011c 627A     		ldrb	r2, [r4, #9]	@ zero_extendqisi2
 371 011e 6271     		strb	r2, [r4, #5]
 372              		.loc 1 121 38 is_stmt 1 view .LVU125
 373              		.loc 1 121 42 is_stmt 0 view .LVU126
 374 0120 627B     		ldrb	r2, [r4, #13]	@ zero_extendqisi2
 375 0122 6272     		strb	r2, [r4, #9]
 376              		.loc 1 121 51 is_stmt 1 view .LVU127
 377              		.loc 1 121 56 is_stmt 0 view .LVU128
 378 0124 6373     		strb	r3, [r4, #13]
 122:Core/Src/main.c ****     t=s[2];  s[2]=s[10]; s[10]=t; t=s[6]; s[6]=s[14]; s[14]=t;
 379              		.loc 1 122 5 is_stmt 1 view .LVU129
 380              		.loc 1 122 6 is_stmt 0 view .LVU130
 381 0126 A378     		ldrb	r3, [r4, #2]	@ zero_extendqisi2
 382              	.LVL34:
 383              		.loc 1 122 14 is_stmt 1 view .LVU131
 384              		.loc 1 122 18 is_stmt 0 view .LVU132
 385 0128 A27A     		ldrb	r2, [r4, #10]	@ zero_extendqisi2
ARM GAS  /tmp/ccxe0c4o.s 			page 10


 386 012a A270     		strb	r2, [r4, #2]
 387              		.loc 1 122 26 is_stmt 1 view .LVU133
 388              		.loc 1 122 31 is_stmt 0 view .LVU134
 389 012c A372     		strb	r3, [r4, #10]
 390              		.loc 1 122 35 is_stmt 1 view .LVU135
 391              		.loc 1 122 36 is_stmt 0 view .LVU136
 392 012e A379     		ldrb	r3, [r4, #6]	@ zero_extendqisi2
 393              	.LVL35:
 394              		.loc 1 122 43 is_stmt 1 view .LVU137
 395              		.loc 1 122 47 is_stmt 0 view .LVU138
 396 0130 A27B     		ldrb	r2, [r4, #14]	@ zero_extendqisi2
 397 0132 A271     		strb	r2, [r4, #6]
 398              		.loc 1 122 55 is_stmt 1 view .LVU139
 399              		.loc 1 122 60 is_stmt 0 view .LVU140
 400 0134 A373     		strb	r3, [r4, #14]
 123:Core/Src/main.c ****     t=s[15]; s[15]=s[11];s[11]=s[7];s[7]=s[3];  s[3]=t;
 401              		.loc 1 123 5 is_stmt 1 view .LVU141
 402              		.loc 1 123 6 is_stmt 0 view .LVU142
 403 0136 E37B     		ldrb	r3, [r4, #15]	@ zero_extendqisi2
 404              	.LVL36:
 405              		.loc 1 123 14 is_stmt 1 view .LVU143
 406              		.loc 1 123 19 is_stmt 0 view .LVU144
 407 0138 E27A     		ldrb	r2, [r4, #11]	@ zero_extendqisi2
 408 013a E273     		strb	r2, [r4, #15]
 409              		.loc 1 123 26 is_stmt 1 view .LVU145
 410              		.loc 1 123 31 is_stmt 0 view .LVU146
 411 013c E279     		ldrb	r2, [r4, #7]	@ zero_extendqisi2
 412 013e E272     		strb	r2, [r4, #11]
 413              		.loc 1 123 37 is_stmt 1 view .LVU147
 414              		.loc 1 123 41 is_stmt 0 view .LVU148
 415 0140 E278     		ldrb	r2, [r4, #3]	@ zero_extendqisi2
 416 0142 E271     		strb	r2, [r4, #7]
 417              		.loc 1 123 49 is_stmt 1 view .LVU149
 418              		.loc 1 123 53 is_stmt 0 view .LVU150
 419 0144 E370     		strb	r3, [r4, #3]
 124:Core/Src/main.c ****     for(int i=0;i<16;i++) s[i]^=rk[160+i];
 420              		.loc 1 124 5 is_stmt 1 view .LVU151
 421              	.LBB14:
 422              		.loc 1 124 9 view .LVU152
 423              	.LVL37:
 424              		.loc 1 124 13 is_stmt 0 view .LVU153
 425 0146 0023     		movs	r3, #0
 426              	.LVL38:
 427              		.loc 1 124 5 view .LVU154
 428 0148 07E0     		b	.L14
 429              	.LVL39:
 430              	.L15:
 431              		.loc 1 124 27 is_stmt 1 discriminator 3 view .LVU155
 432              		.loc 1 124 39 is_stmt 0 discriminator 3 view .LVU156
 433 014a 03F1A002 		add	r2, r3, #160
 434              		.loc 1 124 35 discriminator 3 view .LVU157
 435 014e 1AF80220 		ldrb	r2, [r10, r2]	@ zero_extendqisi2
 436              		.loc 1 124 31 discriminator 3 view .LVU158
 437 0152 E15C     		ldrb	r1, [r4, r3]	@ zero_extendqisi2
 438 0154 4A40     		eors	r2, r2, r1
 439 0156 E254     		strb	r2, [r4, r3]
 440              		.loc 1 124 22 is_stmt 1 discriminator 3 view .LVU159
ARM GAS  /tmp/ccxe0c4o.s 			page 11


 441              		.loc 1 124 23 is_stmt 0 discriminator 3 view .LVU160
 442 0158 0133     		adds	r3, r3, #1
 443              	.LVL40:
 444              	.L14:
 445              		.loc 1 124 17 is_stmt 1 discriminator 1 view .LVU161
 446              		.loc 1 124 5 is_stmt 0 discriminator 1 view .LVU162
 447 015a 0F2B     		cmp	r3, #15
 448 015c F5DD     		ble	.L15
 449              	.LBE14:
 125:Core/Src/main.c **** }
 450              		.loc 1 125 1 view .LVU163
 451 015e 03B0     		add	sp, sp, #12
 452              	.LCFI2:
 453              		.cfi_def_cfa_offset 36
 454              		@ sp needed
 455 0160 BDE8F08F 		pop	{r4, r5, r6, r7, r8, r9, r10, fp, pc}
 456              	.LVL41:
 457              	.L20:
 458              		.loc 1 125 1 view .LVU164
 459              		.align	2
 460              	.L19:
 461 0164 00000000 		.word	.LANCHOR0
 462              		.cfi_endproc
 463              	.LFE67:
 465              		.section	.text.leftshift_onebit,"ax",%progbits
 466              		.align	1
 467              		.syntax unified
 468              		.thumb
 469              		.thumb_func
 470              		.fpu softvfp
 472              	leftshift_onebit:
 473              	.LVL42:
 474              	.LFB68:
 126:Core/Src/main.c **** 
 127:Core/Src/main.c **** /* ============================================================
 128:Core/Src/main.c ****  *               AES-CMAC (для MIC)
 129:Core/Src/main.c ****  * ============================================================ */
 130:Core/Src/main.c **** static void leftshift_onebit(const uint8_t *in, uint8_t *out)
 131:Core/Src/main.c **** {
 475              		.loc 1 131 1 is_stmt 1 view -0
 476              		.cfi_startproc
 477              		@ args = 0, pretend = 0, frame = 0
 478              		@ frame_needed = 0, uses_anonymous_args = 0
 479              		@ link register save eliminated.
 132:Core/Src/main.c ****     uint8_t overflow=0;
 480              		.loc 1 132 5 view .LVU166
 133:Core/Src/main.c ****     for(int i=15;i>=0;i--){
 481              		.loc 1 133 5 view .LVU167
 482              	.LBB15:
 483              		.loc 1 133 9 view .LVU168
 484              		.loc 1 133 13 is_stmt 0 view .LVU169
 485 0000 0F23     		movs	r3, #15
 486              	.LBE15:
 132:Core/Src/main.c ****     uint8_t overflow=0;
 487              		.loc 1 132 13 view .LVU170
 488 0002 0022     		movs	r2, #0
 489              	.LBB16:
ARM GAS  /tmp/ccxe0c4o.s 			page 12


 490              		.loc 1 133 5 view .LVU171
 491 0004 07E0     		b	.L22
 492              	.LVL43:
 493              	.L23:
 134:Core/Src/main.c ****         out[i]=(uint8_t)((in[i]<<1)|overflow);
 494              		.loc 1 134 9 is_stmt 1 discriminator 3 view .LVU172
 495              		.loc 1 134 29 is_stmt 0 discriminator 3 view .LVU173
 496 0006 10F803C0 		ldrb	ip, [r0, r3]	@ zero_extendqisi2
 497              		.loc 1 134 36 discriminator 3 view .LVU174
 498 000a 42EA4C02 		orr	r2, r2, ip, lsl #1
 499              	.LVL44:
 500              		.loc 1 134 15 discriminator 3 view .LVU175
 501 000e CA54     		strb	r2, [r1, r3]
 135:Core/Src/main.c ****         overflow=(in[i]&0x80)?1:0;
 502              		.loc 1 135 9 is_stmt 1 discriminator 3 view .LVU176
 503              		.loc 1 135 32 is_stmt 0 discriminator 3 view .LVU177
 504 0010 C25C     		ldrb	r2, [r0, r3]	@ zero_extendqisi2
 505              		.loc 1 135 17 discriminator 3 view .LVU178
 506 0012 D209     		lsrs	r2, r2, #7
 507              	.LVL45:
 133:Core/Src/main.c ****     for(int i=15;i>=0;i--){
 508              		.loc 1 133 23 is_stmt 1 discriminator 3 view .LVU179
 133:Core/Src/main.c ****     for(int i=15;i>=0;i--){
 509              		.loc 1 133 24 is_stmt 0 discriminator 3 view .LVU180
 510 0014 013B     		subs	r3, r3, #1
 511              	.LVL46:
 512              	.L22:
 133:Core/Src/main.c ****     for(int i=15;i>=0;i--){
 513              		.loc 1 133 18 is_stmt 1 discriminator 1 view .LVU181
 133:Core/Src/main.c ****     for(int i=15;i>=0;i--){
 514              		.loc 1 133 5 is_stmt 0 discriminator 1 view .LVU182
 515 0016 002B     		cmp	r3, #0
 516 0018 F5DA     		bge	.L23
 517              	.LBE16:
 136:Core/Src/main.c ****     }
 137:Core/Src/main.c **** }
 518              		.loc 1 137 1 view .LVU183
 519 001a 7047     		bx	lr
 520              		.cfi_endproc
 521              	.LFE68:
 523              		.section	.text.cmac_subkey,"ax",%progbits
 524              		.align	1
 525              		.syntax unified
 526              		.thumb
 527              		.thumb_func
 528              		.fpu softvfp
 530              	cmac_subkey:
 531              	.LVL47:
 532              	.LFB69:
 138:Core/Src/main.c **** 
 139:Core/Src/main.c **** static void cmac_subkey(const uint8_t rk[176], uint8_t k1[16], uint8_t k2[16])
 140:Core/Src/main.c **** {
 533              		.loc 1 140 1 is_stmt 1 view -0
 534              		.cfi_startproc
 535              		@ args = 0, pretend = 0, frame = 16
 536              		@ frame_needed = 0, uses_anonymous_args = 0
 537              		.loc 1 140 1 is_stmt 0 view .LVU185
ARM GAS  /tmp/ccxe0c4o.s 			page 13


 538 0000 30B5     		push	{r4, r5, lr}
 539              	.LCFI3:
 540              		.cfi_def_cfa_offset 12
 541              		.cfi_offset 4, -12
 542              		.cfi_offset 5, -8
 543              		.cfi_offset 14, -4
 544 0002 85B0     		sub	sp, sp, #20
 545              	.LCFI4:
 546              		.cfi_def_cfa_offset 32
 547 0004 0C46     		mov	r4, r1
 548 0006 1546     		mov	r5, r2
 141:Core/Src/main.c ****     uint8_t L[16]={0};
 549              		.loc 1 141 5 is_stmt 1 view .LVU186
 550              		.loc 1 141 13 is_stmt 0 view .LVU187
 551 0008 0023     		movs	r3, #0
 552 000a 0093     		str	r3, [sp]
 553 000c 0193     		str	r3, [sp, #4]
 554 000e 0293     		str	r3, [sp, #8]
 555 0010 0393     		str	r3, [sp, #12]
 142:Core/Src/main.c ****     aes_encrypt_block(rk, L);          /* AES(0^16) */
 556              		.loc 1 142 5 is_stmt 1 view .LVU188
 557 0012 6946     		mov	r1, sp
 558              	.LVL48:
 559              		.loc 1 142 5 is_stmt 0 view .LVU189
 560 0014 FFF7FEFF 		bl	aes_encrypt_block
 561              	.LVL49:
 143:Core/Src/main.c ****     leftshift_onebit(L,k1);
 562              		.loc 1 143 5 is_stmt 1 view .LVU190
 563 0018 2146     		mov	r1, r4
 564 001a 6846     		mov	r0, sp
 565 001c FFF7FEFF 		bl	leftshift_onebit
 566              	.LVL50:
 144:Core/Src/main.c ****     if(L[0]&0x80) k1[15]^=0x87;
 567              		.loc 1 144 5 view .LVU191
 568              		.loc 1 144 8 is_stmt 0 view .LVU192
 569 0020 9DF90030 		ldrsb	r3, [sp]
 570              		.loc 1 144 7 view .LVU193
 571 0024 002B     		cmp	r3, #0
 572 0026 09DB     		blt	.L28
 573              	.L25:
 145:Core/Src/main.c ****     leftshift_onebit(k1,k2);
 574              		.loc 1 145 5 is_stmt 1 view .LVU194
 575 0028 2946     		mov	r1, r5
 576 002a 2046     		mov	r0, r4
 577 002c FFF7FEFF 		bl	leftshift_onebit
 578              	.LVL51:
 146:Core/Src/main.c ****     if(k1[0]&0x80) k2[15]^=0x87;
 579              		.loc 1 146 5 view .LVU195
 580              		.loc 1 146 8 is_stmt 0 view .LVU196
 581 0030 94F90030 		ldrsb	r3, [r4]
 582              		.loc 1 146 7 view .LVU197
 583 0034 002B     		cmp	r3, #0
 584 0036 06DB     		blt	.L29
 585              	.L24:
 147:Core/Src/main.c **** }
 586              		.loc 1 147 1 view .LVU198
 587 0038 05B0     		add	sp, sp, #20
ARM GAS  /tmp/ccxe0c4o.s 			page 14


 588              	.LCFI5:
 589              		.cfi_remember_state
 590              		.cfi_def_cfa_offset 12
 591              		@ sp needed
 592 003a 30BD     		pop	{r4, r5, pc}
 593              	.LVL52:
 594              	.L28:
 595              	.LCFI6:
 596              		.cfi_restore_state
 144:Core/Src/main.c ****     leftshift_onebit(k1,k2);
 597              		.loc 1 144 19 is_stmt 1 discriminator 1 view .LVU199
 144:Core/Src/main.c ****     leftshift_onebit(k1,k2);
 598              		.loc 1 144 25 is_stmt 0 discriminator 1 view .LVU200
 599 003c E37B     		ldrb	r3, [r4, #15]	@ zero_extendqisi2
 600 003e 83F08703 		eor	r3, r3, #135
 601 0042 E373     		strb	r3, [r4, #15]
 602 0044 F0E7     		b	.L25
 603              	.L29:
 146:Core/Src/main.c ****     if(k1[0]&0x80) k2[15]^=0x87;
 604              		.loc 1 146 20 is_stmt 1 discriminator 1 view .LVU201
 146:Core/Src/main.c ****     if(k1[0]&0x80) k2[15]^=0x87;
 605              		.loc 1 146 26 is_stmt 0 discriminator 1 view .LVU202
 606 0046 EB7B     		ldrb	r3, [r5, #15]	@ zero_extendqisi2
 607 0048 83F08703 		eor	r3, r3, #135
 608 004c EB73     		strb	r3, [r5, #15]
 609              		.loc 1 147 1 discriminator 1 view .LVU203
 610 004e F3E7     		b	.L24
 611              		.cfi_endproc
 612              	.LFE69:
 614              		.section	.text.busy,"ax",%progbits
 615              		.align	1
 616              		.syntax unified
 617              		.thumb
 618              		.thumb_func
 619              		.fpu softvfp
 621              	busy:
 622              	.LFB74:
 148:Core/Src/main.c **** 
 149:Core/Src/main.c **** /* CMAC по сообщению msg[len] ключом key, результат mac[16] */
 150:Core/Src/main.c **** static void aes_cmac(const uint8_t key[16], const uint8_t *msg, int len, uint8_t mac[16])
 151:Core/Src/main.c **** {
 152:Core/Src/main.c ****     uint8_t rk[176];
 153:Core/Src/main.c ****     aes_key_expand(key, rk);
 154:Core/Src/main.c ****     uint8_t k1[16],k2[16];
 155:Core/Src/main.c ****     cmac_subkey(rk,k1,k2);
 156:Core/Src/main.c **** 
 157:Core/Src/main.c ****     int n=(len+15)/16;
 158:Core/Src/main.c ****     int flag_complete;
 159:Core/Src/main.c ****     if(n==0){ n=1; flag_complete=0; }
 160:Core/Src/main.c ****     else flag_complete=(len%16==0);
 161:Core/Src/main.c **** 
 162:Core/Src/main.c ****     uint8_t X[16]={0};
 163:Core/Src/main.c ****     uint8_t M_last[16];
 164:Core/Src/main.c **** 
 165:Core/Src/main.c ****     /* последний блок */
 166:Core/Src/main.c ****     int last_start=(n-1)*16;
 167:Core/Src/main.c ****     if(flag_complete){
ARM GAS  /tmp/ccxe0c4o.s 			page 15


 168:Core/Src/main.c ****         for(int i=0;i<16;i++) M_last[i]=msg[last_start+i]^k1[i];
 169:Core/Src/main.c ****     } else {
 170:Core/Src/main.c ****         int rem=len-last_start;
 171:Core/Src/main.c ****         for(int i=0;i<16;i++){
 172:Core/Src/main.c ****             uint8_t b;
 173:Core/Src/main.c ****             if(i<rem) b=msg[last_start+i];
 174:Core/Src/main.c ****             else if(i==rem) b=0x80;
 175:Core/Src/main.c ****             else b=0x00;
 176:Core/Src/main.c ****             M_last[i]=b^k2[i];
 177:Core/Src/main.c ****         }
 178:Core/Src/main.c ****     }
 179:Core/Src/main.c **** 
 180:Core/Src/main.c ****     /* блоки 0..n-2 */
 181:Core/Src/main.c ****     for(int i=0;i<n-1;i++){
 182:Core/Src/main.c ****         for(int j=0;j<16;j++) X[j]^=msg[i*16+j];
 183:Core/Src/main.c ****         aes_encrypt_block(rk,X);
 184:Core/Src/main.c ****     }
 185:Core/Src/main.c ****     for(int j=0;j<16;j++) X[j]^=M_last[j];
 186:Core/Src/main.c ****     aes_encrypt_block(rk,X);
 187:Core/Src/main.c ****     memcpy(mac,X,16);
 188:Core/Src/main.c **** }
 189:Core/Src/main.c **** 
 190:Core/Src/main.c **** /* ============================================================
 191:Core/Src/main.c ****  *      LoRaWAN: шифрование payload (AES-CTR) + MIC (B0)
 192:Core/Src/main.c ****  * ============================================================ */
 193:Core/Src/main.c **** 
 194:Core/Src/main.c **** /* Шифрование/дешифрование FRMPayload по LoRaWAN (FCntUp в dir=0) */
 195:Core/Src/main.c **** static void lorawan_encrypt_payload(uint8_t *data, int len,
 196:Core/Src/main.c ****                                     const uint8_t appskey[16],
 197:Core/Src/main.c ****                                     const uint8_t devaddr_le[4],
 198:Core/Src/main.c ****                                     uint32_t fcnt)
 199:Core/Src/main.c **** {
 200:Core/Src/main.c ****     uint8_t rk[176];
 201:Core/Src/main.c ****     aes_key_expand(appskey, rk);
 202:Core/Src/main.c ****     int k=(len+15)/16;
 203:Core/Src/main.c ****     for(int i=1;i<=k;i++){
 204:Core/Src/main.c ****         uint8_t A[16]={0x01,0,0,0,0, 0x00, /* dir=0 uplink */
 205:Core/Src/main.c ****                        devaddr_le[0],devaddr_le[1],devaddr_le[2],devaddr_le[3],
 206:Core/Src/main.c ****                        (uint8_t)(fcnt&0xFF),(uint8_t)((fcnt>>8)&0xFF),
 207:Core/Src/main.c ****                        (uint8_t)((fcnt>>16)&0xFF),(uint8_t)((fcnt>>24)&0xFF),
 208:Core/Src/main.c ****                        0x00, (uint8_t)i};
 209:Core/Src/main.c ****         uint8_t S[16];
 210:Core/Src/main.c ****         memcpy(S,A,16);
 211:Core/Src/main.c ****         aes_encrypt_block(rk,S);
 212:Core/Src/main.c ****         int blockstart=(i-1)*16;
 213:Core/Src/main.c ****         int n=len-blockstart; if(n>16) n=16;
 214:Core/Src/main.c ****         for(int j=0;j<n;j++) data[blockstart+j]^=S[j];
 215:Core/Src/main.c ****     }
 216:Core/Src/main.c **** }
 217:Core/Src/main.c **** 
 218:Core/Src/main.c **** /* MIC по LoRaWAN 1.0: B0 || msg, CMAC с NwkSKey, первые 4 байта */
 219:Core/Src/main.c **** static void lorawan_compute_mic(const uint8_t *msg, int len,
 220:Core/Src/main.c ****                                 const uint8_t nwkskey[16],
 221:Core/Src/main.c ****                                 const uint8_t devaddr_le[4],
 222:Core/Src/main.c ****                                 uint32_t fcnt, uint8_t mic[4])
 223:Core/Src/main.c **** {
 224:Core/Src/main.c ****     uint8_t buf[64];
ARM GAS  /tmp/ccxe0c4o.s 			page 16


 225:Core/Src/main.c ****     /* блок B0 */
 226:Core/Src/main.c ****     uint8_t B0[16]={0x49,0,0,0,0, 0x00, /* dir=0 */
 227:Core/Src/main.c ****                     devaddr_le[0],devaddr_le[1],devaddr_le[2],devaddr_le[3],
 228:Core/Src/main.c ****                     (uint8_t)(fcnt&0xFF),(uint8_t)((fcnt>>8)&0xFF),
 229:Core/Src/main.c ****                     (uint8_t)((fcnt>>16)&0xFF),(uint8_t)((fcnt>>24)&0xFF),
 230:Core/Src/main.c ****                     0x00,(uint8_t)len};
 231:Core/Src/main.c ****     memcpy(buf,B0,16);
 232:Core/Src/main.c ****     memcpy(buf+16,msg,len);
 233:Core/Src/main.c ****     uint8_t full[16];
 234:Core/Src/main.c ****     aes_cmac(nwkskey, buf, 16+len, full);
 235:Core/Src/main.c ****     memcpy(mic,full,4);
 236:Core/Src/main.c **** }
 237:Core/Src/main.c **** 
 238:Core/Src/main.c **** /* Собирает готовый LoRaWAN-кадр в out[], возвращает длину */
 239:Core/Src/main.c **** static int lorawan_build_uplink(uint8_t *out, const uint8_t *app_payload,
 240:Core/Src/main.c ****                                 int app_len, uint8_t fport, uint32_t fcnt)
 241:Core/Src/main.c **** {
 242:Core/Src/main.c ****     uint8_t devaddr_le[4]={DEVADDR[3],DEVADDR[2],DEVADDR[1],DEVADDR[0]};
 243:Core/Src/main.c ****     int p=0;
 244:Core/Src/main.c ****     out[p++]=0x40;                 /* MHDR: unconfirmed data up */
 245:Core/Src/main.c ****     out[p++]=devaddr_le[0];        /* DevAddr little-endian */
 246:Core/Src/main.c ****     out[p++]=devaddr_le[1];
 247:Core/Src/main.c ****     out[p++]=devaddr_le[2];
 248:Core/Src/main.c ****     out[p++]=devaddr_le[3];
 249:Core/Src/main.c ****     out[p++]=0x00;                 /* FCtrl */
 250:Core/Src/main.c ****     out[p++]=(uint8_t)(fcnt&0xFF); /* FCnt little-endian */
 251:Core/Src/main.c ****     out[p++]=(uint8_t)((fcnt>>8)&0xFF);
 252:Core/Src/main.c ****     out[p++]=fport;                /* FPort */
 253:Core/Src/main.c **** 
 254:Core/Src/main.c ****     /* копируем payload и шифруем его на месте */
 255:Core/Src/main.c ****     uint8_t enc[32];
 256:Core/Src/main.c ****     memcpy(enc, app_payload, app_len);
 257:Core/Src/main.c ****     lorawan_encrypt_payload(enc, app_len, APPSKEY, devaddr_le, fcnt);
 258:Core/Src/main.c ****     memcpy(out+p, enc, app_len);
 259:Core/Src/main.c ****     p+=app_len;
 260:Core/Src/main.c **** 
 261:Core/Src/main.c ****     /* MIC по всему, что собрали (MHDR..FRMPayload) */
 262:Core/Src/main.c ****     uint8_t mic[4];
 263:Core/Src/main.c ****     lorawan_compute_mic(out, p, NWKSKEY, devaddr_le, fcnt, mic);
 264:Core/Src/main.c ****     memcpy(out+p, mic, 4);
 265:Core/Src/main.c ****     p+=4;
 266:Core/Src/main.c **** 
 267:Core/Src/main.c ****     return p;  /* итоговая длина кадра */
 268:Core/Src/main.c **** }
 269:Core/Src/main.c **** /* USER CODE END AES */
 270:Core/Src/main.c **** 
 271:Core/Src/main.c **** /* USER CODE BEGIN 0 */
 272:Core/Src/main.c **** static void busy(void) { HAL_Delay(5); }
 623              		.loc 1 272 24 is_stmt 1 view -0
 624              		.cfi_startproc
 625              		@ args = 0, pretend = 0, frame = 0
 626              		@ frame_needed = 0, uses_anonymous_args = 0
 627 0000 08B5     		push	{r3, lr}
 628              	.LCFI7:
 629              		.cfi_def_cfa_offset 8
 630              		.cfi_offset 3, -8
 631              		.cfi_offset 14, -4
ARM GAS  /tmp/ccxe0c4o.s 			page 17


 632              		.loc 1 272 26 view .LVU205
 633 0002 0520     		movs	r0, #5
 634 0004 FFF7FEFF 		bl	HAL_Delay
 635              	.LVL53:
 636              		.loc 1 272 40 is_stmt 0 view .LVU206
 637 0008 08BD     		pop	{r3, pc}
 638              		.cfi_endproc
 639              	.LFE74:
 641              		.section	.text.sx_reset,"ax",%progbits
 642              		.align	1
 643              		.syntax unified
 644              		.thumb
 645              		.thumb_func
 646              		.fpu softvfp
 648              	sx_reset:
 649              	.LFB76:
 273:Core/Src/main.c **** 
 274:Core/Src/main.c **** static void sx_cmd(uint8_t *tx, uint8_t *rx, uint16_t len)
 275:Core/Src/main.c **** {
 276:Core/Src/main.c ****     busy();
 277:Core/Src/main.c ****     HAL_GPIO_WritePin(NSS_GPIO_Port, NSS_Pin, GPIO_PIN_RESET);
 278:Core/Src/main.c ****     HAL_SPI_TransmitReceive(&hspi1, tx, rx, len, 100);
 279:Core/Src/main.c ****     HAL_GPIO_WritePin(NSS_GPIO_Port, NSS_Pin, GPIO_PIN_SET);
 280:Core/Src/main.c **** }
 281:Core/Src/main.c **** 
 282:Core/Src/main.c **** static void sx_reset(void)
 283:Core/Src/main.c **** {
 650              		.loc 1 283 1 is_stmt 1 view -0
 651              		.cfi_startproc
 652              		@ args = 0, pretend = 0, frame = 0
 653              		@ frame_needed = 0, uses_anonymous_args = 0
 654 0000 10B5     		push	{r4, lr}
 655              	.LCFI8:
 656              		.cfi_def_cfa_offset 8
 657              		.cfi_offset 4, -8
 658              		.cfi_offset 14, -4
 284:Core/Src/main.c ****     HAL_GPIO_WritePin(NSS_GPIO_Port, NSS_Pin, GPIO_PIN_SET);
 659              		.loc 1 284 5 view .LVU208
 660 0002 0122     		movs	r2, #1
 661 0004 1021     		movs	r1, #16
 662 0006 0A48     		ldr	r0, .L34
 663 0008 FFF7FEFF 		bl	HAL_GPIO_WritePin
 664              	.LVL54:
 285:Core/Src/main.c ****     HAL_GPIO_WritePin(RST_GPIO_Port, RST_Pin, GPIO_PIN_RESET);
 665              		.loc 1 285 5 view .LVU209
 666 000c 094C     		ldr	r4, .L34+4
 667 000e 0022     		movs	r2, #0
 668 0010 0121     		movs	r1, #1
 669 0012 2046     		mov	r0, r4
 670 0014 FFF7FEFF 		bl	HAL_GPIO_WritePin
 671              	.LVL55:
 286:Core/Src/main.c ****     HAL_Delay(50);
 672              		.loc 1 286 5 view .LVU210
 673 0018 3220     		movs	r0, #50
 674 001a FFF7FEFF 		bl	HAL_Delay
 675              	.LVL56:
 287:Core/Src/main.c ****     HAL_GPIO_WritePin(RST_GPIO_Port, RST_Pin, GPIO_PIN_SET);
ARM GAS  /tmp/ccxe0c4o.s 			page 18


 676              		.loc 1 287 5 view .LVU211
 677 001e 0122     		movs	r2, #1
 678 0020 1146     		mov	r1, r2
 679 0022 2046     		mov	r0, r4
 680 0024 FFF7FEFF 		bl	HAL_GPIO_WritePin
 681              	.LVL57:
 288:Core/Src/main.c ****     HAL_Delay(100);
 682              		.loc 1 288 5 view .LVU212
 683 0028 6420     		movs	r0, #100
 684 002a FFF7FEFF 		bl	HAL_Delay
 685              	.LVL58:
 289:Core/Src/main.c **** }
 686              		.loc 1 289 1 is_stmt 0 view .LVU213
 687 002e 10BD     		pop	{r4, pc}
 688              	.L35:
 689              		.align	2
 690              	.L34:
 691 0030 00080140 		.word	1073809408
 692 0034 000C0140 		.word	1073810432
 693              		.cfi_endproc
 694              	.LFE76:
 696              		.section	.text.MX_GPIO_Init,"ax",%progbits
 697              		.align	1
 698              		.syntax unified
 699              		.thumb
 700              		.thumb_func
 701              		.fpu softvfp
 703              	MX_GPIO_Init:
 704              	.LFB84:
 290:Core/Src/main.c **** 
 291:Core/Src/main.c **** static uint8_t sx_chipmode(void)
 292:Core/Src/main.c **** {
 293:Core/Src/main.c ****     uint8_t tx[2] = {0xC0, 0x00};
 294:Core/Src/main.c ****     uint8_t rx[2] = {0};
 295:Core/Src/main.c ****     sx_cmd(tx, rx, 2);
 296:Core/Src/main.c ****     return (rx[1] >> 4) & 0x7;
 297:Core/Src/main.c **** }
 298:Core/Src/main.c **** 
 299:Core/Src/main.c **** static uint8_t sx_readreg(uint16_t addr)
 300:Core/Src/main.c **** {
 301:Core/Src/main.c ****     uint8_t tx[5] = {0x1D, (addr>>8)&0xFF, addr&0xFF, 0x00, 0x00};
 302:Core/Src/main.c ****     uint8_t rx[5] = {0};
 303:Core/Src/main.c ****     sx_cmd(tx, rx, 5);
 304:Core/Src/main.c ****     return rx[4];
 305:Core/Src/main.c **** }
 306:Core/Src/main.c **** 
 307:Core/Src/main.c **** static void sx_radio_config(void)
 308:Core/Src/main.c **** {
 309:Core/Src/main.c ****     uint8_t rx[10] = {0};
 310:Core/Src/main.c ****     { uint8_t t[2]={0x80,0x00}; sx_cmd(t,rx,2); HAL_Delay(5); }
 311:Core/Src/main.c ****     { uint8_t t[2]={0x89,0x7F}; sx_cmd(t,rx,2); HAL_Delay(20); }
 312:Core/Src/main.c ****     { uint8_t t[1]={0x07}; sx_cmd(t,rx,1); HAL_Delay(5); }
 313:Core/Src/main.c **** 
 314:Core/Src/main.c ****     /* Регулятор LDO */
 315:Core/Src/main.c ****     { uint8_t t[2]={0x96,0x00}; sx_cmd(t,rx,2); HAL_Delay(5); }
 316:Core/Src/main.c ****     /* DIO2 управляет RF-свитчем */
 317:Core/Src/main.c ****     { uint8_t t[2]={0x9D,0x01}; sx_cmd(t,rx,2); HAL_Delay(5); }
ARM GAS  /tmp/ccxe0c4o.s 			page 19


 318:Core/Src/main.c ****     /* CalibrateImage 863-870 */
 319:Core/Src/main.c ****     { uint8_t t[3]={0x98,0xD7,0xDB}; sx_cmd(t,rx,3); HAL_Delay(5); }
 320:Core/Src/main.c ****     /* PacketType LoRa */
 321:Core/Src/main.c ****     { uint8_t t[2]={0x8A,0x01}; sx_cmd(t,rx,2); HAL_Delay(5); }
 322:Core/Src/main.c **** 
 323:Core/Src/main.c ****     /* Частота 868.100 МГц */
 324:Core/Src/main.c ****     { uint8_t t[5]={0x86,0x36,0x40,0x3D,0x60}; sx_cmd(t,rx,5); HAL_Delay(5); }
 325:Core/Src/main.c **** 
 326:Core/Src/main.c ****     /* PA config +22 dBm */
 327:Core/Src/main.c ****     { uint8_t t[5]={0x95,0x04,0x07,0x00,0x01}; sx_cmd(t,rx,5); HAL_Delay(5); }
 328:Core/Src/main.c ****     /* TX params 22 dBm, ramp 200us */
 329:Core/Src/main.c ****     { uint8_t t[3]={0x8E,22,0x04}; sx_cmd(t,rx,3); HAL_Delay(5); }
 330:Core/Src/main.c **** 
 331:Core/Src/main.c ****     /* Модуляция SF12 BW125 CR4/5 LDRO on */
 332:Core/Src/main.c ****     { uint8_t t[5]={0x8B,0x0C,0x04,0x01,0x01}; sx_cmd(t,rx,5); HAL_Delay(5); }
 333:Core/Src/main.c ****     /* Синхрослово LoRaWAN public 0x3444 */
 334:Core/Src/main.c ****     { uint8_t t[5]={0x0D,0x07,0x40,0x34,0x44}; sx_cmd(t,rx,5); HAL_Delay(5); }
 335:Core/Src/main.c **** }
 336:Core/Src/main.c **** 
 337:Core/Src/main.c **** static void sx_send_packet(void)
 338:Core/Src/main.c **** {
 339:Core/Src/main.c ****     uint8_t rx[10] = {0};
 340:Core/Src/main.c **** 
 341:Core/Src/main.c ****     /* === собираем LoRaWAN-кадр с AES === */
 342:Core/Src/main.c ****     uint8_t app[2] = {'H','I'};            /* открытый payload */
 343:Core/Src/main.c ****     uint8_t frame[32];
 344:Core/Src/main.c ****     int flen = lorawan_build_uplink(frame, app, 2, 0x01, fcnt_up);
 345:Core/Src/main.c **** 
 346:Core/Src/main.c ****     { uint8_t t[2]={0x80,0x00}; sx_cmd(t,rx,2); HAL_Delay(5); }
 347:Core/Src/main.c ****     { uint8_t t[3]={0x8F,0x00,0x00}; sx_cmd(t,rx,3); HAL_Delay(5); }
 348:Core/Src/main.c ****     /* packet params: preamble 8, explicit, payload=flen, CRC on, IQ std */
 349:Core/Src/main.c ****     { uint8_t t[7]={0x8C,0x00,0x08,0x00,(uint8_t)flen,0x01,0x00}; sx_cmd(t,rx,7); HAL_Delay(5); }
 350:Core/Src/main.c ****     {
 351:Core/Src/main.c ****         uint8_t wr[1]={0x0E}; uint8_t addr[1]={0x00};
 352:Core/Src/main.c ****         busy();
 353:Core/Src/main.c ****         HAL_GPIO_WritePin(NSS_GPIO_Port, NSS_Pin, GPIO_PIN_RESET);
 354:Core/Src/main.c ****         HAL_SPI_Transmit(&hspi1, wr,   1, 100);     /* WriteBuffer opcode */
 355:Core/Src/main.c ****         HAL_SPI_Transmit(&hspi1, addr, 1, 100);     /* offset 0 */
 356:Core/Src/main.c ****         HAL_SPI_Transmit(&hspi1, frame, flen, 100); /* сам кадр */
 357:Core/Src/main.c ****         HAL_GPIO_WritePin(NSS_GPIO_Port, NSS_Pin, GPIO_PIN_SET);
 358:Core/Src/main.c ****         HAL_Delay(5);
 359:Core/Src/main.c ****     }
 360:Core/Src/main.c ****     { uint8_t t[3]={0x02,0xFF,0xFF}; sx_cmd(t,rx,3); HAL_Delay(5); }
 361:Core/Src/main.c ****     { uint8_t t[4]={0x83,0x00,0x00,0x00}; sx_cmd(t,rx,4); }
 362:Core/Src/main.c ****     HAL_Delay(2);
 363:Core/Src/main.c ****     mode_after_tx = sx_chipmode();
 364:Core/Src/main.c ****     tx_reached = (mode_after_tx == 0x06) ? 1 : 0;
 365:Core/Src/main.c ****     HAL_Delay(2000);
 366:Core/Src/main.c ****     { uint8_t t[4]={0x17,0x00,0x00,0x00}; uint8_t r[4]={0};
 367:Core/Src/main.c ****       sx_cmd(t,r,4); err_lsb = r[3]; }
 368:Core/Src/main.c **** 
 369:Core/Src/main.c ****     fcnt_up++;      /* увеличиваем счётчик кадров */
 370:Core/Src/main.c ****     tx_count++;
 371:Core/Src/main.c **** }
 372:Core/Src/main.c **** /* USER CODE END 0 */
 373:Core/Src/main.c **** 
 374:Core/Src/main.c **** int main(void)
ARM GAS  /tmp/ccxe0c4o.s 			page 20


 375:Core/Src/main.c **** {
 376:Core/Src/main.c ****   HAL_Init();
 377:Core/Src/main.c ****   SystemClock_Config();
 378:Core/Src/main.c ****   MX_GPIO_Init();
 379:Core/Src/main.c ****   MX_SPI1_Init();
 380:Core/Src/main.c **** 
 381:Core/Src/main.c ****   __HAL_RCC_AFIO_CLK_ENABLE();
 382:Core/Src/main.c ****   __HAL_AFIO_REMAP_SWJ_NOJTAG();
 383:Core/Src/main.c ****   HAL_Delay(500);
 384:Core/Src/main.c **** 
 385:Core/Src/main.c ****   sx_reset();
 386:Core/Src/main.c ****   reg320    = sx_readreg(0x0320);
 387:Core/Src/main.c ****   sx_status = sx_chipmode();
 388:Core/Src/main.c ****   sx_radio_config();
 389:Core/Src/main.c **** 
 390:Core/Src/main.c ****   while(1)
 391:Core/Src/main.c ****   {
 392:Core/Src/main.c ****     HAL_GPIO_WritePin(GPIOC, GPIO_PIN_13, GPIO_PIN_RESET);
 393:Core/Src/main.c ****     sx_send_packet();
 394:Core/Src/main.c ****     HAL_GPIO_WritePin(GPIOC, GPIO_PIN_13, GPIO_PIN_SET);
 395:Core/Src/main.c ****     HAL_Delay(3000);
 396:Core/Src/main.c ****   }
 397:Core/Src/main.c **** }
 398:Core/Src/main.c **** 
 399:Core/Src/main.c **** void SystemClock_Config(void)
 400:Core/Src/main.c **** {
 401:Core/Src/main.c ****   RCC_OscInitTypeDef RCC_OscInitStruct = {0};
 402:Core/Src/main.c ****   RCC_ClkInitTypeDef RCC_ClkInitStruct = {0};
 403:Core/Src/main.c ****   RCC_OscInitStruct.OscillatorType = RCC_OSCILLATORTYPE_HSI;
 404:Core/Src/main.c ****   RCC_OscInitStruct.HSIState = RCC_HSI_ON;
 405:Core/Src/main.c ****   RCC_OscInitStruct.HSICalibrationValue = RCC_HSICALIBRATION_DEFAULT;
 406:Core/Src/main.c ****   RCC_OscInitStruct.PLL.PLLState = RCC_PLL_NONE;
 407:Core/Src/main.c ****   if (HAL_RCC_OscConfig(&RCC_OscInitStruct) != HAL_OK) Error_Handler();
 408:Core/Src/main.c ****   RCC_ClkInitStruct.ClockType = RCC_CLOCKTYPE_HCLK|RCC_CLOCKTYPE_SYSCLK
 409:Core/Src/main.c ****                               |RCC_CLOCKTYPE_PCLK1|RCC_CLOCKTYPE_PCLK2;
 410:Core/Src/main.c ****   RCC_ClkInitStruct.SYSCLKSource = RCC_SYSCLKSOURCE_HSI;
 411:Core/Src/main.c ****   RCC_ClkInitStruct.AHBCLKDivider = RCC_SYSCLK_DIV1;
 412:Core/Src/main.c ****   RCC_ClkInitStruct.APB1CLKDivider = RCC_HCLK_DIV1;
 413:Core/Src/main.c ****   RCC_ClkInitStruct.APB2CLKDivider = RCC_HCLK_DIV1;
 414:Core/Src/main.c ****   if (HAL_RCC_ClockConfig(&RCC_ClkInitStruct, FLASH_LATENCY_0) != HAL_OK) Error_Handler();
 415:Core/Src/main.c **** }
 416:Core/Src/main.c **** 
 417:Core/Src/main.c **** static void MX_SPI1_Init(void)
 418:Core/Src/main.c **** {
 419:Core/Src/main.c ****   hspi1.Instance = SPI1;
 420:Core/Src/main.c ****   hspi1.Init.Mode = SPI_MODE_MASTER;
 421:Core/Src/main.c ****   hspi1.Init.Direction = SPI_DIRECTION_2LINES;
 422:Core/Src/main.c ****   hspi1.Init.DataSize = SPI_DATASIZE_8BIT;
 423:Core/Src/main.c ****   hspi1.Init.CLKPolarity = SPI_POLARITY_LOW;
 424:Core/Src/main.c ****   hspi1.Init.CLKPhase = SPI_PHASE_1EDGE;
 425:Core/Src/main.c ****   hspi1.Init.NSS = SPI_NSS_SOFT;
 426:Core/Src/main.c ****   hspi1.Init.BaudRatePrescaler = SPI_BAUDRATEPRESCALER_16;
 427:Core/Src/main.c ****   hspi1.Init.FirstBit = SPI_FIRSTBIT_MSB;
 428:Core/Src/main.c ****   hspi1.Init.TIMode = SPI_TIMODE_DISABLE;
 429:Core/Src/main.c ****   hspi1.Init.CRCCalculation = SPI_CRCCALCULATION_DISABLE;
 430:Core/Src/main.c ****   hspi1.Init.CRCPolynomial = 10;
 431:Core/Src/main.c ****   if (HAL_SPI_Init(&hspi1) != HAL_OK) Error_Handler();
ARM GAS  /tmp/ccxe0c4o.s 			page 21


 432:Core/Src/main.c **** }
 433:Core/Src/main.c **** 
 434:Core/Src/main.c **** static void MX_GPIO_Init(void)
 435:Core/Src/main.c **** {
 705              		.loc 1 435 1 is_stmt 1 view -0
 706              		.cfi_startproc
 707              		@ args = 0, pretend = 0, frame = 32
 708              		@ frame_needed = 0, uses_anonymous_args = 0
 709 0000 2DE9F041 		push	{r4, r5, r6, r7, r8, lr}
 710              	.LCFI9:
 711              		.cfi_def_cfa_offset 24
 712              		.cfi_offset 4, -24
 713              		.cfi_offset 5, -20
 714              		.cfi_offset 6, -16
 715              		.cfi_offset 7, -12
 716              		.cfi_offset 8, -8
 717              		.cfi_offset 14, -4
 718 0004 88B0     		sub	sp, sp, #32
 719              	.LCFI10:
 720              		.cfi_def_cfa_offset 56
 436:Core/Src/main.c ****   GPIO_InitTypeDef GPIO_InitStruct = {0};
 721              		.loc 1 436 3 view .LVU215
 722              		.loc 1 436 20 is_stmt 0 view .LVU216
 723 0006 0024     		movs	r4, #0
 724 0008 0494     		str	r4, [sp, #16]
 725 000a 0594     		str	r4, [sp, #20]
 726 000c 0694     		str	r4, [sp, #24]
 727 000e 0794     		str	r4, [sp, #28]
 437:Core/Src/main.c ****   __HAL_RCC_GPIOC_CLK_ENABLE();
 728              		.loc 1 437 3 is_stmt 1 view .LVU217
 729              	.LBB17:
 730              		.loc 1 437 3 view .LVU218
 731              		.loc 1 437 3 view .LVU219
 732 0010 2E4B     		ldr	r3, .L38
 733 0012 9A69     		ldr	r2, [r3, #24]
 734 0014 42F01002 		orr	r2, r2, #16
 735 0018 9A61     		str	r2, [r3, #24]
 736              		.loc 1 437 3 view .LVU220
 737 001a 9A69     		ldr	r2, [r3, #24]
 738 001c 02F01002 		and	r2, r2, #16
 739 0020 0092     		str	r2, [sp]
 740              		.loc 1 437 3 view .LVU221
 741 0022 009A     		ldr	r2, [sp]
 742              	.LBE17:
 743              		.loc 1 437 3 view .LVU222
 438:Core/Src/main.c ****   __HAL_RCC_GPIOD_CLK_ENABLE();
 744              		.loc 1 438 3 view .LVU223
 745              	.LBB18:
 746              		.loc 1 438 3 view .LVU224
 747              		.loc 1 438 3 view .LVU225
 748 0024 9A69     		ldr	r2, [r3, #24]
 749 0026 42F02002 		orr	r2, r2, #32
 750 002a 9A61     		str	r2, [r3, #24]
 751              		.loc 1 438 3 view .LVU226
 752 002c 9A69     		ldr	r2, [r3, #24]
 753 002e 02F02002 		and	r2, r2, #32
 754 0032 0192     		str	r2, [sp, #4]
ARM GAS  /tmp/ccxe0c4o.s 			page 22


 755              		.loc 1 438 3 view .LVU227
 756 0034 019A     		ldr	r2, [sp, #4]
 757              	.LBE18:
 758              		.loc 1 438 3 view .LVU228
 439:Core/Src/main.c ****   __HAL_RCC_GPIOA_CLK_ENABLE();
 759              		.loc 1 439 3 view .LVU229
 760              	.LBB19:
 761              		.loc 1 439 3 view .LVU230
 762              		.loc 1 439 3 view .LVU231
 763 0036 9A69     		ldr	r2, [r3, #24]
 764 0038 42F00402 		orr	r2, r2, #4
 765 003c 9A61     		str	r2, [r3, #24]
 766              		.loc 1 439 3 view .LVU232
 767 003e 9A69     		ldr	r2, [r3, #24]
 768 0040 02F00402 		and	r2, r2, #4
 769 0044 0292     		str	r2, [sp, #8]
 770              		.loc 1 439 3 view .LVU233
 771 0046 029A     		ldr	r2, [sp, #8]
 772              	.LBE19:
 773              		.loc 1 439 3 view .LVU234
 440:Core/Src/main.c ****   __HAL_RCC_GPIOB_CLK_ENABLE();
 774              		.loc 1 440 3 view .LVU235
 775              	.LBB20:
 776              		.loc 1 440 3 view .LVU236
 777              		.loc 1 440 3 view .LVU237
 778 0048 9A69     		ldr	r2, [r3, #24]
 779 004a 42F00802 		orr	r2, r2, #8
 780 004e 9A61     		str	r2, [r3, #24]
 781              		.loc 1 440 3 view .LVU238
 782 0050 9B69     		ldr	r3, [r3, #24]
 783 0052 03F00803 		and	r3, r3, #8
 784 0056 0393     		str	r3, [sp, #12]
 785              		.loc 1 440 3 view .LVU239
 786 0058 039B     		ldr	r3, [sp, #12]
 787              	.LBE20:
 788              		.loc 1 440 3 view .LVU240
 441:Core/Src/main.c ****   HAL_GPIO_WritePin(GPIOC, GPIO_PIN_13, GPIO_PIN_SET);
 789              		.loc 1 441 3 view .LVU241
 790 005a 1D4E     		ldr	r6, .L38+4
 791 005c 0122     		movs	r2, #1
 792 005e 4FF40051 		mov	r1, #8192
 793 0062 3046     		mov	r0, r6
 794 0064 FFF7FEFF 		bl	HAL_GPIO_WritePin
 795              	.LVL59:
 442:Core/Src/main.c ****   HAL_GPIO_WritePin(NSS_GPIO_Port, NSS_Pin, GPIO_PIN_SET);
 796              		.loc 1 442 3 view .LVU242
 797 0068 DFF86880 		ldr	r8, .L38+8
 798 006c 0122     		movs	r2, #1
 799 006e 1021     		movs	r1, #16
 800 0070 4046     		mov	r0, r8
 801 0072 FFF7FEFF 		bl	HAL_GPIO_WritePin
 802              	.LVL60:
 443:Core/Src/main.c ****   HAL_GPIO_WritePin(RST_GPIO_Port, RST_Pin, GPIO_PIN_SET);
 803              		.loc 1 443 3 view .LVU243
 804 0076 184D     		ldr	r5, .L38+12
 805 0078 0122     		movs	r2, #1
 806 007a 1146     		mov	r1, r2
ARM GAS  /tmp/ccxe0c4o.s 			page 23


 807 007c 2846     		mov	r0, r5
 808 007e FFF7FEFF 		bl	HAL_GPIO_WritePin
 809              	.LVL61:
 444:Core/Src/main.c **** 
 445:Core/Src/main.c ****   GPIO_InitStruct.Pin = GPIO_PIN_13;
 810              		.loc 1 445 3 view .LVU244
 811              		.loc 1 445 23 is_stmt 0 view .LVU245
 812 0082 4FF40053 		mov	r3, #8192
 813 0086 0493     		str	r3, [sp, #16]
 446:Core/Src/main.c ****   GPIO_InitStruct.Mode = GPIO_MODE_OUTPUT_PP;
 814              		.loc 1 446 3 is_stmt 1 view .LVU246
 815              		.loc 1 446 24 is_stmt 0 view .LVU247
 816 0088 0127     		movs	r7, #1
 817 008a 0597     		str	r7, [sp, #20]
 447:Core/Src/main.c ****   GPIO_InitStruct.Pull = GPIO_NOPULL;
 818              		.loc 1 447 3 is_stmt 1 view .LVU248
 819              		.loc 1 447 24 is_stmt 0 view .LVU249
 820 008c 0694     		str	r4, [sp, #24]
 448:Core/Src/main.c ****   GPIO_InitStruct.Speed = GPIO_SPEED_FREQ_LOW;
 821              		.loc 1 448 3 is_stmt 1 view .LVU250
 822              		.loc 1 448 25 is_stmt 0 view .LVU251
 823 008e 0223     		movs	r3, #2
 824 0090 0793     		str	r3, [sp, #28]
 449:Core/Src/main.c ****   HAL_GPIO_Init(GPIOC, &GPIO_InitStruct);
 825              		.loc 1 449 3 is_stmt 1 view .LVU252
 826 0092 04A9     		add	r1, sp, #16
 827 0094 3046     		mov	r0, r6
 828 0096 FFF7FEFF 		bl	HAL_GPIO_Init
 829              	.LVL62:
 450:Core/Src/main.c **** 
 451:Core/Src/main.c ****   GPIO_InitStruct.Pin = NSS_Pin;
 830              		.loc 1 451 3 view .LVU253
 831              		.loc 1 451 23 is_stmt 0 view .LVU254
 832 009a 1026     		movs	r6, #16
 833 009c 0496     		str	r6, [sp, #16]
 452:Core/Src/main.c ****   HAL_GPIO_Init(NSS_GPIO_Port, &GPIO_InitStruct);
 834              		.loc 1 452 3 is_stmt 1 view .LVU255
 835 009e 0DEB0601 		add	r1, sp, r6
 836 00a2 4046     		mov	r0, r8
 837 00a4 FFF7FEFF 		bl	HAL_GPIO_Init
 838              	.LVL63:
 453:Core/Src/main.c ****   GPIO_InitStruct.Pin = RST_Pin;
 839              		.loc 1 453 3 view .LVU256
 840              		.loc 1 453 23 is_stmt 0 view .LVU257
 841 00a8 0497     		str	r7, [sp, #16]
 454:Core/Src/main.c ****   HAL_GPIO_Init(RST_GPIO_Port, &GPIO_InitStruct);
 842              		.loc 1 454 3 is_stmt 1 view .LVU258
 843 00aa 0DEB0601 		add	r1, sp, r6
 844 00ae 2846     		mov	r0, r5
 845 00b0 FFF7FEFF 		bl	HAL_GPIO_Init
 846              	.LVL64:
 455:Core/Src/main.c **** 
 456:Core/Src/main.c ****   GPIO_InitStruct.Pin = DIO1_Pin;
 847              		.loc 1 456 3 view .LVU259
 848              		.loc 1 456 23 is_stmt 0 view .LVU260
 849 00b4 0496     		str	r6, [sp, #16]
 457:Core/Src/main.c ****   GPIO_InitStruct.Mode = GPIO_MODE_INPUT;
ARM GAS  /tmp/ccxe0c4o.s 			page 24


 850              		.loc 1 457 3 is_stmt 1 view .LVU261
 851              		.loc 1 457 24 is_stmt 0 view .LVU262
 852 00b6 0594     		str	r4, [sp, #20]
 458:Core/Src/main.c ****   GPIO_InitStruct.Pull = GPIO_NOPULL;
 853              		.loc 1 458 3 is_stmt 1 view .LVU263
 854              		.loc 1 458 24 is_stmt 0 view .LVU264
 855 00b8 0694     		str	r4, [sp, #24]
 459:Core/Src/main.c ****   HAL_GPIO_Init(DIO1_GPIO_Port, &GPIO_InitStruct);
 856              		.loc 1 459 3 is_stmt 1 view .LVU265
 857 00ba 0DEB0601 		add	r1, sp, r6
 858 00be 2846     		mov	r0, r5
 859 00c0 FFF7FEFF 		bl	HAL_GPIO_Init
 860              	.LVL65:
 460:Core/Src/main.c **** }
 861              		.loc 1 460 1 is_stmt 0 view .LVU266
 862 00c4 08B0     		add	sp, sp, #32
 863              	.LCFI11:
 864              		.cfi_def_cfa_offset 24
 865              		@ sp needed
 866 00c6 BDE8F081 		pop	{r4, r5, r6, r7, r8, pc}
 867              	.L39:
 868 00ca 00BF     		.align	2
 869              	.L38:
 870 00cc 00100240 		.word	1073876992
 871 00d0 00100140 		.word	1073811456
 872 00d4 00080140 		.word	1073809408
 873 00d8 000C0140 		.word	1073810432
 874              		.cfi_endproc
 875              	.LFE84:
 877              		.section	.text.sx_cmd,"ax",%progbits
 878              		.align	1
 879              		.syntax unified
 880              		.thumb
 881              		.thumb_func
 882              		.fpu softvfp
 884              	sx_cmd:
 885              	.LVL66:
 886              	.LFB75:
 275:Core/Src/main.c ****     busy();
 887              		.loc 1 275 1 is_stmt 1 view -0
 888              		.cfi_startproc
 889              		@ args = 0, pretend = 0, frame = 0
 890              		@ frame_needed = 0, uses_anonymous_args = 0
 275:Core/Src/main.c ****     busy();
 891              		.loc 1 275 1 is_stmt 0 view .LVU268
 892 0000 F0B5     		push	{r4, r5, r6, r7, lr}
 893              	.LCFI12:
 894              		.cfi_def_cfa_offset 20
 895              		.cfi_offset 4, -20
 896              		.cfi_offset 5, -16
 897              		.cfi_offset 6, -12
 898              		.cfi_offset 7, -8
 899              		.cfi_offset 14, -4
 900 0002 83B0     		sub	sp, sp, #12
 901              	.LCFI13:
 902              		.cfi_def_cfa_offset 32
 903 0004 0446     		mov	r4, r0
ARM GAS  /tmp/ccxe0c4o.s 			page 25


 904 0006 0D46     		mov	r5, r1
 905 0008 1646     		mov	r6, r2
 276:Core/Src/main.c ****     HAL_GPIO_WritePin(NSS_GPIO_Port, NSS_Pin, GPIO_PIN_RESET);
 906              		.loc 1 276 5 is_stmt 1 view .LVU269
 907 000a FFF7FEFF 		bl	busy
 908              	.LVL67:
 277:Core/Src/main.c ****     HAL_SPI_TransmitReceive(&hspi1, tx, rx, len, 100);
 909              		.loc 1 277 5 view .LVU270
 910 000e 0A4F     		ldr	r7, .L42
 911 0010 0022     		movs	r2, #0
 912 0012 1021     		movs	r1, #16
 913 0014 3846     		mov	r0, r7
 914 0016 FFF7FEFF 		bl	HAL_GPIO_WritePin
 915              	.LVL68:
 278:Core/Src/main.c ****     HAL_GPIO_WritePin(NSS_GPIO_Port, NSS_Pin, GPIO_PIN_SET);
 916              		.loc 1 278 5 view .LVU271
 917 001a 6423     		movs	r3, #100
 918 001c 0093     		str	r3, [sp]
 919 001e 3346     		mov	r3, r6
 920 0020 2A46     		mov	r2, r5
 921 0022 2146     		mov	r1, r4
 922 0024 0548     		ldr	r0, .L42+4
 923 0026 FFF7FEFF 		bl	HAL_SPI_TransmitReceive
 924              	.LVL69:
 279:Core/Src/main.c **** }
 925              		.loc 1 279 5 view .LVU272
 926 002a 0122     		movs	r2, #1
 927 002c 1021     		movs	r1, #16
 928 002e 3846     		mov	r0, r7
 929 0030 FFF7FEFF 		bl	HAL_GPIO_WritePin
 930              	.LVL70:
 280:Core/Src/main.c **** 
 931              		.loc 1 280 1 is_stmt 0 view .LVU273
 932 0034 03B0     		add	sp, sp, #12
 933              	.LCFI14:
 934              		.cfi_def_cfa_offset 20
 935              		@ sp needed
 936 0036 F0BD     		pop	{r4, r5, r6, r7, pc}
 937              	.LVL71:
 938              	.L43:
 280:Core/Src/main.c **** 
 939              		.loc 1 280 1 view .LVU274
 940              		.align	2
 941              	.L42:
 942 0038 00080140 		.word	1073809408
 943 003c 00000000 		.word	.LANCHOR1
 944              		.cfi_endproc
 945              	.LFE75:
 947              		.section	.text.sx_readreg,"ax",%progbits
 948              		.align	1
 949              		.syntax unified
 950              		.thumb
 951              		.thumb_func
 952              		.fpu softvfp
 954              	sx_readreg:
 955              	.LVL72:
 956              	.LFB78:
ARM GAS  /tmp/ccxe0c4o.s 			page 26


 300:Core/Src/main.c ****     uint8_t tx[5] = {0x1D, (addr>>8)&0xFF, addr&0xFF, 0x00, 0x00};
 957              		.loc 1 300 1 is_stmt 1 view -0
 958              		.cfi_startproc
 959              		@ args = 0, pretend = 0, frame = 16
 960              		@ frame_needed = 0, uses_anonymous_args = 0
 300:Core/Src/main.c ****     uint8_t tx[5] = {0x1D, (addr>>8)&0xFF, addr&0xFF, 0x00, 0x00};
 961              		.loc 1 300 1 is_stmt 0 view .LVU276
 962 0000 00B5     		push	{lr}
 963              	.LCFI15:
 964              		.cfi_def_cfa_offset 4
 965              		.cfi_offset 14, -4
 966 0002 85B0     		sub	sp, sp, #20
 967              	.LCFI16:
 968              		.cfi_def_cfa_offset 24
 301:Core/Src/main.c ****     uint8_t rx[5] = {0};
 969              		.loc 1 301 5 is_stmt 1 view .LVU277
 301:Core/Src/main.c ****     uint8_t rx[5] = {0};
 970              		.loc 1 301 13 is_stmt 0 view .LVU278
 971 0004 1D23     		movs	r3, #29
 972 0006 8DF80830 		strb	r3, [sp, #8]
 973 000a 030A     		lsrs	r3, r0, #8
 974 000c 8DF80930 		strb	r3, [sp, #9]
 975 0010 8DF80A00 		strb	r0, [sp, #10]
 976 0014 0023     		movs	r3, #0
 977 0016 8DF80B30 		strb	r3, [sp, #11]
 978 001a 8DF80C30 		strb	r3, [sp, #12]
 302:Core/Src/main.c ****     sx_cmd(tx, rx, 5);
 979              		.loc 1 302 5 is_stmt 1 view .LVU279
 302:Core/Src/main.c ****     sx_cmd(tx, rx, 5);
 980              		.loc 1 302 13 is_stmt 0 view .LVU280
 981 001e 0093     		str	r3, [sp]
 982 0020 8DF80430 		strb	r3, [sp, #4]
 303:Core/Src/main.c ****     return rx[4];
 983              		.loc 1 303 5 is_stmt 1 view .LVU281
 984 0024 0522     		movs	r2, #5
 985 0026 6946     		mov	r1, sp
 986 0028 02A8     		add	r0, sp, #8
 987              	.LVL73:
 303:Core/Src/main.c ****     return rx[4];
 988              		.loc 1 303 5 is_stmt 0 view .LVU282
 989 002a FFF7FEFF 		bl	sx_cmd
 990              	.LVL74:
 304:Core/Src/main.c **** }
 991              		.loc 1 304 5 is_stmt 1 view .LVU283
 305:Core/Src/main.c **** 
 992              		.loc 1 305 1 is_stmt 0 view .LVU284
 993 002e 9DF80400 		ldrb	r0, [sp, #4]	@ zero_extendqisi2
 994 0032 05B0     		add	sp, sp, #20
 995              	.LCFI17:
 996              		.cfi_def_cfa_offset 4
 997              		@ sp needed
 998 0034 5DF804FB 		ldr	pc, [sp], #4
 999              		.cfi_endproc
 1000              	.LFE78:
 1002              		.section	.text.sx_chipmode,"ax",%progbits
 1003              		.align	1
 1004              		.syntax unified
ARM GAS  /tmp/ccxe0c4o.s 			page 27


 1005              		.thumb
 1006              		.thumb_func
 1007              		.fpu softvfp
 1009              	sx_chipmode:
 1010              	.LFB77:
 292:Core/Src/main.c ****     uint8_t tx[2] = {0xC0, 0x00};
 1011              		.loc 1 292 1 is_stmt 1 view -0
 1012              		.cfi_startproc
 1013              		@ args = 0, pretend = 0, frame = 8
 1014              		@ frame_needed = 0, uses_anonymous_args = 0
 1015 0000 00B5     		push	{lr}
 1016              	.LCFI18:
 1017              		.cfi_def_cfa_offset 4
 1018              		.cfi_offset 14, -4
 1019 0002 83B0     		sub	sp, sp, #12
 1020              	.LCFI19:
 1021              		.cfi_def_cfa_offset 16
 293:Core/Src/main.c ****     uint8_t rx[2] = {0};
 1022              		.loc 1 293 5 view .LVU286
 293:Core/Src/main.c ****     uint8_t rx[2] = {0};
 1023              		.loc 1 293 13 is_stmt 0 view .LVU287
 1024 0004 C023     		movs	r3, #192
 1025 0006 ADF80430 		strh	r3, [sp, #4]	@ movhi
 294:Core/Src/main.c ****     sx_cmd(tx, rx, 2);
 1026              		.loc 1 294 5 is_stmt 1 view .LVU288
 294:Core/Src/main.c ****     sx_cmd(tx, rx, 2);
 1027              		.loc 1 294 13 is_stmt 0 view .LVU289
 1028 000a 0023     		movs	r3, #0
 1029 000c ADF80030 		strh	r3, [sp]	@ movhi
 295:Core/Src/main.c ****     return (rx[1] >> 4) & 0x7;
 1030              		.loc 1 295 5 is_stmt 1 view .LVU290
 1031 0010 0222     		movs	r2, #2
 1032 0012 6946     		mov	r1, sp
 1033 0014 01A8     		add	r0, sp, #4
 1034 0016 FFF7FEFF 		bl	sx_cmd
 1035              	.LVL75:
 296:Core/Src/main.c **** }
 1036              		.loc 1 296 5 view .LVU291
 296:Core/Src/main.c **** }
 1037              		.loc 1 296 15 is_stmt 0 view .LVU292
 1038 001a 9DF80100 		ldrb	r0, [sp, #1]	@ zero_extendqisi2
 297:Core/Src/main.c **** 
 1039              		.loc 1 297 1 view .LVU293
 1040 001e C0F30210 		ubfx	r0, r0, #4, #3
 1041 0022 03B0     		add	sp, sp, #12
 1042              	.LCFI20:
 1043              		.cfi_def_cfa_offset 4
 1044              		@ sp needed
 1045 0024 5DF804FB 		ldr	pc, [sp], #4
 1046              		.cfi_endproc
 1047              	.LFE77:
 1049              		.section	.rodata.sx_radio_config.str1.4,"aMS",%progbits,1
 1050              		.align	2
 1051              	.LC0:
 1052 0000 98D7DB00 		.ascii	"\230\327\333\000"
 1053              		.align	2
 1054              	.LC1:
ARM GAS  /tmp/ccxe0c4o.s 			page 28


 1055 0004 8636403D 		.ascii	"\2066@=`\000"
 1055      6000
 1056 000a 0000     		.align	2
 1057              	.LC3:
 1058 000c 8E160400 		.ascii	"\216\026\004\000"
 1059              		.align	2
 1060              	.LC4:
 1061 0010 8B0C0401 		.ascii	"\213\014\004\001\001\000"
 1061      0100
 1062 0016 0000     		.align	2
 1063              	.LC5:
 1064 0018 0D074034 		.ascii	"\015\007@4D\000"
 1064      4400
 1065              		.section	.text.sx_radio_config,"ax",%progbits
 1066              		.align	1
 1067              		.syntax unified
 1068              		.thumb
 1069              		.thumb_func
 1070              		.fpu softvfp
 1072              	sx_radio_config:
 1073              	.LFB79:
 308:Core/Src/main.c ****     uint8_t rx[10] = {0};
 1074              		.loc 1 308 1 is_stmt 1 view -0
 1075              		.cfi_startproc
 1076              		@ args = 0, pretend = 0, frame = 24
 1077              		@ frame_needed = 0, uses_anonymous_args = 0
 1078 0000 00B5     		push	{lr}
 1079              	.LCFI21:
 1080              		.cfi_def_cfa_offset 4
 1081              		.cfi_offset 14, -4
 1082 0002 87B0     		sub	sp, sp, #28
 1083              	.LCFI22:
 1084              		.cfi_def_cfa_offset 32
 309:Core/Src/main.c ****     { uint8_t t[2]={0x80,0x00}; sx_cmd(t,rx,2); HAL_Delay(5); }
 1085              		.loc 1 309 5 view .LVU295
 309:Core/Src/main.c ****     { uint8_t t[2]={0x80,0x00}; sx_cmd(t,rx,2); HAL_Delay(5); }
 1086              		.loc 1 309 13 is_stmt 0 view .LVU296
 1087 0004 0023     		movs	r3, #0
 1088 0006 0393     		str	r3, [sp, #12]
 1089 0008 0493     		str	r3, [sp, #16]
 1090 000a ADF81430 		strh	r3, [sp, #20]	@ movhi
 1091              	.LBB21:
 310:Core/Src/main.c ****     { uint8_t t[2]={0x89,0x7F}; sx_cmd(t,rx,2); HAL_Delay(20); }
 1092              		.loc 1 310 7 is_stmt 1 view .LVU297
 310:Core/Src/main.c ****     { uint8_t t[2]={0x89,0x7F}; sx_cmd(t,rx,2); HAL_Delay(20); }
 1093              		.loc 1 310 15 is_stmt 0 view .LVU298
 1094 000e 8023     		movs	r3, #128
 1095 0010 ADF80430 		strh	r3, [sp, #4]	@ movhi
 310:Core/Src/main.c ****     { uint8_t t[2]={0x89,0x7F}; sx_cmd(t,rx,2); HAL_Delay(20); }
 1096              		.loc 1 310 33 is_stmt 1 view .LVU299
 1097 0014 0222     		movs	r2, #2
 1098 0016 03A9     		add	r1, sp, #12
 1099 0018 01A8     		add	r0, sp, #4
 1100 001a FFF7FEFF 		bl	sx_cmd
 1101              	.LVL76:
 310:Core/Src/main.c ****     { uint8_t t[2]={0x89,0x7F}; sx_cmd(t,rx,2); HAL_Delay(20); }
 1102              		.loc 1 310 49 view .LVU300
ARM GAS  /tmp/ccxe0c4o.s 			page 29


 1103 001e 0520     		movs	r0, #5
 1104 0020 FFF7FEFF 		bl	HAL_Delay
 1105              	.LVL77:
 1106              	.LBE21:
 1107              	.LBB22:
 311:Core/Src/main.c ****     { uint8_t t[1]={0x07}; sx_cmd(t,rx,1); HAL_Delay(5); }
 1108              		.loc 1 311 7 view .LVU301
 311:Core/Src/main.c ****     { uint8_t t[1]={0x07}; sx_cmd(t,rx,1); HAL_Delay(5); }
 1109              		.loc 1 311 15 is_stmt 0 view .LVU302
 1110 0024 47F68973 		movw	r3, #32649
 1111 0028 ADF80430 		strh	r3, [sp, #4]	@ movhi
 311:Core/Src/main.c ****     { uint8_t t[1]={0x07}; sx_cmd(t,rx,1); HAL_Delay(5); }
 1112              		.loc 1 311 33 is_stmt 1 view .LVU303
 1113 002c 0222     		movs	r2, #2
 1114 002e 03A9     		add	r1, sp, #12
 1115 0030 01A8     		add	r0, sp, #4
 1116 0032 FFF7FEFF 		bl	sx_cmd
 1117              	.LVL78:
 311:Core/Src/main.c ****     { uint8_t t[1]={0x07}; sx_cmd(t,rx,1); HAL_Delay(5); }
 1118              		.loc 1 311 49 view .LVU304
 1119 0036 1420     		movs	r0, #20
 1120 0038 FFF7FEFF 		bl	HAL_Delay
 1121              	.LVL79:
 1122              	.LBE22:
 1123              	.LBB23:
 312:Core/Src/main.c **** 
 1124              		.loc 1 312 7 view .LVU305
 312:Core/Src/main.c **** 
 1125              		.loc 1 312 15 is_stmt 0 view .LVU306
 1126 003c 0723     		movs	r3, #7
 1127 003e 8DF80430 		strb	r3, [sp, #4]
 312:Core/Src/main.c **** 
 1128              		.loc 1 312 28 is_stmt 1 view .LVU307
 1129 0042 0122     		movs	r2, #1
 1130 0044 03A9     		add	r1, sp, #12
 1131 0046 01A8     		add	r0, sp, #4
 1132 0048 FFF7FEFF 		bl	sx_cmd
 1133              	.LVL80:
 312:Core/Src/main.c **** 
 1134              		.loc 1 312 44 view .LVU308
 1135 004c 0520     		movs	r0, #5
 1136 004e FFF7FEFF 		bl	HAL_Delay
 1137              	.LVL81:
 1138              	.LBE23:
 1139              	.LBB24:
 315:Core/Src/main.c ****     /* DIO2 управляет RF-свитчем */
 1140              		.loc 1 315 7 view .LVU309
 315:Core/Src/main.c ****     /* DIO2 управляет RF-свитчем */
 1141              		.loc 1 315 15 is_stmt 0 view .LVU310
 1142 0052 9623     		movs	r3, #150
 1143 0054 ADF80430 		strh	r3, [sp, #4]	@ movhi
 315:Core/Src/main.c ****     /* DIO2 управляет RF-свитчем */
 1144              		.loc 1 315 33 is_stmt 1 view .LVU311
 1145 0058 0222     		movs	r2, #2
 1146 005a 03A9     		add	r1, sp, #12
 1147 005c 01A8     		add	r0, sp, #4
 1148 005e FFF7FEFF 		bl	sx_cmd
ARM GAS  /tmp/ccxe0c4o.s 			page 30


 1149              	.LVL82:
 315:Core/Src/main.c ****     /* DIO2 управляет RF-свитчем */
 1150              		.loc 1 315 49 view .LVU312
 1151 0062 0520     		movs	r0, #5
 1152 0064 FFF7FEFF 		bl	HAL_Delay
 1153              	.LVL83:
 1154              	.LBE24:
 1155              	.LBB25:
 317:Core/Src/main.c ****     /* CalibrateImage 863-870 */
 1156              		.loc 1 317 7 view .LVU313
 317:Core/Src/main.c ****     /* CalibrateImage 863-870 */
 1157              		.loc 1 317 15 is_stmt 0 view .LVU314
 1158 0068 40F29D13 		movw	r3, #413
 1159 006c ADF80430 		strh	r3, [sp, #4]	@ movhi
 317:Core/Src/main.c ****     /* CalibrateImage 863-870 */
 1160              		.loc 1 317 33 is_stmt 1 view .LVU315
 1161 0070 0222     		movs	r2, #2
 1162 0072 03A9     		add	r1, sp, #12
 1163 0074 01A8     		add	r0, sp, #4
 1164 0076 FFF7FEFF 		bl	sx_cmd
 1165              	.LVL84:
 317:Core/Src/main.c ****     /* CalibrateImage 863-870 */
 1166              		.loc 1 317 49 view .LVU316
 1167 007a 0520     		movs	r0, #5
 1168 007c FFF7FEFF 		bl	HAL_Delay
 1169              	.LVL85:
 1170              	.LBE25:
 1171              	.LBB26:
 319:Core/Src/main.c ****     /* PacketType LoRa */
 1172              		.loc 1 319 7 view .LVU317
 319:Core/Src/main.c ****     /* PacketType LoRa */
 1173              		.loc 1 319 15 is_stmt 0 view .LVU318
 1174 0080 324B     		ldr	r3, .L50
 1175 0082 1B68     		ldr	r3, [r3]
 1176 0084 ADF80430 		strh	r3, [sp, #4]	@ movhi
 1177 0088 1B0C     		lsrs	r3, r3, #16
 1178 008a 8DF80630 		strb	r3, [sp, #6]
 319:Core/Src/main.c ****     /* PacketType LoRa */
 1179              		.loc 1 319 38 is_stmt 1 view .LVU319
 1180 008e 0322     		movs	r2, #3
 1181 0090 03A9     		add	r1, sp, #12
 1182 0092 01A8     		add	r0, sp, #4
 1183 0094 FFF7FEFF 		bl	sx_cmd
 1184              	.LVL86:
 319:Core/Src/main.c ****     /* PacketType LoRa */
 1185              		.loc 1 319 54 view .LVU320
 1186 0098 0520     		movs	r0, #5
 1187 009a FFF7FEFF 		bl	HAL_Delay
 1188              	.LVL87:
 1189              	.LBE26:
 1190              	.LBB27:
 321:Core/Src/main.c **** 
 1191              		.loc 1 321 7 view .LVU321
 321:Core/Src/main.c **** 
 1192              		.loc 1 321 15 is_stmt 0 view .LVU322
 1193 009e 4FF4C573 		mov	r3, #394
 1194 00a2 ADF80430 		strh	r3, [sp, #4]	@ movhi
ARM GAS  /tmp/ccxe0c4o.s 			page 31


 321:Core/Src/main.c **** 
 1195              		.loc 1 321 33 is_stmt 1 view .LVU323
 1196 00a6 0222     		movs	r2, #2
 1197 00a8 03A9     		add	r1, sp, #12
 1198 00aa 01A8     		add	r0, sp, #4
 1199 00ac FFF7FEFF 		bl	sx_cmd
 1200              	.LVL88:
 321:Core/Src/main.c **** 
 1201              		.loc 1 321 49 view .LVU324
 1202 00b0 0520     		movs	r0, #5
 1203 00b2 FFF7FEFF 		bl	HAL_Delay
 1204              	.LVL89:
 1205              	.LBE27:
 1206              	.LBB28:
 324:Core/Src/main.c **** 
 1207              		.loc 1 324 7 view .LVU325
 324:Core/Src/main.c **** 
 1208              		.loc 1 324 15 is_stmt 0 view .LVU326
 1209 00b6 264B     		ldr	r3, .L50+4
 1210 00b8 93E80300 		ldm	r3, {r0, r1}
 1211 00bc 0190     		str	r0, [sp, #4]
 1212 00be 8DF80810 		strb	r1, [sp, #8]
 324:Core/Src/main.c **** 
 1213              		.loc 1 324 48 is_stmt 1 view .LVU327
 1214 00c2 0522     		movs	r2, #5
 1215 00c4 03A9     		add	r1, sp, #12
 1216 00c6 01A8     		add	r0, sp, #4
 1217 00c8 FFF7FEFF 		bl	sx_cmd
 1218              	.LVL90:
 324:Core/Src/main.c **** 
 1219              		.loc 1 324 64 view .LVU328
 1220 00cc 0520     		movs	r0, #5
 1221 00ce FFF7FEFF 		bl	HAL_Delay
 1222              	.LVL91:
 1223              	.LBE28:
 1224              	.LBB29:
 327:Core/Src/main.c ****     /* TX params 22 dBm, ramp 200us */
 1225              		.loc 1 327 7 view .LVU329
 327:Core/Src/main.c ****     /* TX params 22 dBm, ramp 200us */
 1226              		.loc 1 327 15 is_stmt 0 view .LVU330
 1227 00d2 204B     		ldr	r3, .L50+8
 1228 00d4 93E80300 		ldm	r3, {r0, r1}
 1229 00d8 0190     		str	r0, [sp, #4]
 1230 00da 8DF80810 		strb	r1, [sp, #8]
 327:Core/Src/main.c ****     /* TX params 22 dBm, ramp 200us */
 1231              		.loc 1 327 48 is_stmt 1 view .LVU331
 1232 00de 0522     		movs	r2, #5
 1233 00e0 03A9     		add	r1, sp, #12
 1234 00e2 01A8     		add	r0, sp, #4
 1235 00e4 FFF7FEFF 		bl	sx_cmd
 1236              	.LVL92:
 327:Core/Src/main.c ****     /* TX params 22 dBm, ramp 200us */
 1237              		.loc 1 327 64 view .LVU332
 1238 00e8 0520     		movs	r0, #5
 1239 00ea FFF7FEFF 		bl	HAL_Delay
 1240              	.LVL93:
 1241              	.LBE29:
ARM GAS  /tmp/ccxe0c4o.s 			page 32


 1242              	.LBB30:
 329:Core/Src/main.c **** 
 1243              		.loc 1 329 7 view .LVU333
 329:Core/Src/main.c **** 
 1244              		.loc 1 329 15 is_stmt 0 view .LVU334
 1245 00ee 1A4B     		ldr	r3, .L50+12
 1246 00f0 1B68     		ldr	r3, [r3]
 1247 00f2 ADF80430 		strh	r3, [sp, #4]	@ movhi
 1248 00f6 1B0C     		lsrs	r3, r3, #16
 1249 00f8 8DF80630 		strb	r3, [sp, #6]
 329:Core/Src/main.c **** 
 1250              		.loc 1 329 36 is_stmt 1 view .LVU335
 1251 00fc 0322     		movs	r2, #3
 1252 00fe 03A9     		add	r1, sp, #12
 1253 0100 01A8     		add	r0, sp, #4
 1254 0102 FFF7FEFF 		bl	sx_cmd
 1255              	.LVL94:
 329:Core/Src/main.c **** 
 1256              		.loc 1 329 52 view .LVU336
 1257 0106 0520     		movs	r0, #5
 1258 0108 FFF7FEFF 		bl	HAL_Delay
 1259              	.LVL95:
 1260              	.LBE30:
 1261              	.LBB31:
 332:Core/Src/main.c ****     /* Синхрослово LoRaWAN public 0x3444 */
 1262              		.loc 1 332 7 view .LVU337
 332:Core/Src/main.c ****     /* Синхрослово LoRaWAN public 0x3444 */
 1263              		.loc 1 332 15 is_stmt 0 view .LVU338
 1264 010c 134B     		ldr	r3, .L50+16
 1265 010e 93E80300 		ldm	r3, {r0, r1}
 1266 0112 0190     		str	r0, [sp, #4]
 1267 0114 8DF80810 		strb	r1, [sp, #8]
 332:Core/Src/main.c ****     /* Синхрослово LoRaWAN public 0x3444 */
 1268              		.loc 1 332 48 is_stmt 1 view .LVU339
 1269 0118 0522     		movs	r2, #5
 1270 011a 03A9     		add	r1, sp, #12
 1271 011c 01A8     		add	r0, sp, #4
 1272 011e FFF7FEFF 		bl	sx_cmd
 1273              	.LVL96:
 332:Core/Src/main.c ****     /* Синхрослово LoRaWAN public 0x3444 */
 1274              		.loc 1 332 64 view .LVU340
 1275 0122 0520     		movs	r0, #5
 1276 0124 FFF7FEFF 		bl	HAL_Delay
 1277              	.LVL97:
 1278              	.LBE31:
 1279              	.LBB32:
 334:Core/Src/main.c **** }
 1280              		.loc 1 334 7 view .LVU341
 334:Core/Src/main.c **** }
 1281              		.loc 1 334 15 is_stmt 0 view .LVU342
 1282 0128 0D4B     		ldr	r3, .L50+20
 1283 012a 93E80300 		ldm	r3, {r0, r1}
 1284 012e 0190     		str	r0, [sp, #4]
 1285 0130 8DF80810 		strb	r1, [sp, #8]
 334:Core/Src/main.c **** }
 1286              		.loc 1 334 48 is_stmt 1 view .LVU343
 1287 0134 0522     		movs	r2, #5
ARM GAS  /tmp/ccxe0c4o.s 			page 33


 1288 0136 03A9     		add	r1, sp, #12
 1289 0138 01A8     		add	r0, sp, #4
 1290 013a FFF7FEFF 		bl	sx_cmd
 1291              	.LVL98:
 334:Core/Src/main.c **** }
 1292              		.loc 1 334 64 view .LVU344
 1293 013e 0520     		movs	r0, #5
 1294 0140 FFF7FEFF 		bl	HAL_Delay
 1295              	.LVL99:
 1296              	.LBE32:
 335:Core/Src/main.c **** 
 1297              		.loc 1 335 1 is_stmt 0 view .LVU345
 1298 0144 07B0     		add	sp, sp, #28
 1299              	.LCFI23:
 1300              		.cfi_def_cfa_offset 4
 1301              		@ sp needed
 1302 0146 5DF804FB 		ldr	pc, [sp], #4
 1303              	.L51:
 1304 014a 00BF     		.align	2
 1305              	.L50:
 1306 014c 00000000 		.word	.LC0
 1307 0150 04000000 		.word	.LC1
 1308 0154 00000000 		.word	.LANCHOR2
 1309 0158 0C000000 		.word	.LC3
 1310 015c 10000000 		.word	.LC4
 1311 0160 18000000 		.word	.LC5
 1312              		.cfi_endproc
 1313              	.LFE79:
 1315              		.section	.text.aes_key_expand,"ax",%progbits
 1316              		.align	1
 1317              		.syntax unified
 1318              		.thumb
 1319              		.thumb_func
 1320              		.fpu softvfp
 1322              	aes_key_expand:
 1323              	.LVL100:
 1324              	.LFB66:
  74:Core/Src/main.c ****     memcpy(rk, key, 16);
 1325              		.loc 1 74 1 is_stmt 1 view -0
 1326              		.cfi_startproc
 1327              		@ args = 0, pretend = 0, frame = 8
 1328              		@ frame_needed = 0, uses_anonymous_args = 0
  74:Core/Src/main.c ****     memcpy(rk, key, 16);
 1329              		.loc 1 74 1 is_stmt 0 view .LVU347
 1330 0000 10B5     		push	{r4, lr}
 1331              	.LCFI24:
 1332              		.cfi_def_cfa_offset 8
 1333              		.cfi_offset 4, -8
 1334              		.cfi_offset 14, -4
 1335 0002 82B0     		sub	sp, sp, #8
 1336              	.LCFI25:
 1337              		.cfi_def_cfa_offset 16
  75:Core/Src/main.c ****     uint8_t t[4];
 1338              		.loc 1 75 5 is_stmt 1 view .LVU348
 1339 0004 D0F800C0 		ldr	ip, [r0]	@ unaligned
 1340 0008 4468     		ldr	r4, [r0, #4]	@ unaligned
 1341 000a 8268     		ldr	r2, [r0, #8]	@ unaligned
ARM GAS  /tmp/ccxe0c4o.s 			page 34


 1342 000c C368     		ldr	r3, [r0, #12]	@ unaligned
 1343 000e C1F800C0 		str	ip, [r1]	@ unaligned
 1344 0012 4C60     		str	r4, [r1, #4]	@ unaligned
 1345 0014 8A60     		str	r2, [r1, #8]	@ unaligned
 1346 0016 CB60     		str	r3, [r1, #12]	@ unaligned
  76:Core/Src/main.c ****     for (int i = 16; i < 176; i += 4) {
 1347              		.loc 1 76 5 view .LVU349
  77:Core/Src/main.c ****         memcpy(t, rk + i - 4, 4);
 1348              		.loc 1 77 5 view .LVU350
 1349              	.LBB33:
  77:Core/Src/main.c ****         memcpy(t, rk + i - 4, 4);
 1350              		.loc 1 77 10 view .LVU351
 1351              	.LVL101:
  77:Core/Src/main.c ****         memcpy(t, rk + i - 4, 4);
 1352              		.loc 1 77 14 is_stmt 0 view .LVU352
 1353 0018 1020     		movs	r0, #16
 1354              	.LVL102:
  77:Core/Src/main.c ****         memcpy(t, rk + i - 4, 4);
 1355              		.loc 1 77 5 view .LVU353
 1356 001a 16E0     		b	.L53
 1357              	.LVL103:
 1358              	.L61:
 1359              	.LBB34:
  81:Core/Src/main.c ****             t[1] = aes_sbox[t[2]];
 1360              		.loc 1 81 47 view .LVU354
 1361 001c 00F10F02 		add	r2, r0, #15
 1362 0020 23E0     		b	.L55
 1363              	.LVL104:
 1364              	.L57:
  81:Core/Src/main.c ****             t[1] = aes_sbox[t[2]];
 1365              		.loc 1 81 47 view .LVU355
 1366              	.LBE34:
 1367              	.LBB35:
  87:Core/Src/main.c ****     }
 1368              		.loc 1 87 13 is_stmt 1 discriminator 3 view .LVU356
  87:Core/Src/main.c ****     }
 1369              		.loc 1 87 27 is_stmt 0 discriminator 3 view .LVU357
 1370 0022 A0F11002 		sub	r2, r0, #16
  87:Core/Src/main.c ****     }
 1371              		.loc 1 87 30 discriminator 3 view .LVU358
 1372 0026 1A44     		add	r2, r2, r3
  87:Core/Src/main.c ****     }
 1373              		.loc 1 87 25 discriminator 3 view .LVU359
 1374 0028 8A5C     		ldrb	r2, [r1, r2]	@ zero_extendqisi2
  87:Core/Src/main.c ****     }
 1375              		.loc 1 87 37 discriminator 3 view .LVU360
 1376 002a 03F10804 		add	r4, r3, #8
 1377 002e 0DEB040C 		add	ip, sp, r4
 1378 0032 1CF804EC 		ldrb	lr, [ip, #-4]	@ zero_extendqisi2
  87:Core/Src/main.c ****     }
 1379              		.loc 1 87 17 discriminator 3 view .LVU361
 1380 0036 00EB030C 		add	ip, r0, r3
  87:Core/Src/main.c ****     }
 1381              		.loc 1 87 21 discriminator 3 view .LVU362
 1382 003a 82EA0E02 		eor	r2, r2, lr
 1383 003e 01F80C20 		strb	r2, [r1, ip]
  86:Core/Src/main.c ****             rk[i+j] = rk[i-16+j] ^ t[j];
ARM GAS  /tmp/ccxe0c4o.s 			page 35


 1384              		.loc 1 86 32 is_stmt 1 discriminator 3 view .LVU363
  86:Core/Src/main.c ****             rk[i+j] = rk[i-16+j] ^ t[j];
 1385              		.loc 1 86 33 is_stmt 0 discriminator 3 view .LVU364
 1386 0042 0133     		adds	r3, r3, #1
 1387              	.LVL105:
 1388              	.L56:
  86:Core/Src/main.c ****             rk[i+j] = rk[i-16+j] ^ t[j];
 1389              		.loc 1 86 25 is_stmt 1 discriminator 1 view .LVU365
  86:Core/Src/main.c ****             rk[i+j] = rk[i-16+j] ^ t[j];
 1390              		.loc 1 86 9 is_stmt 0 discriminator 1 view .LVU366
 1391 0044 032B     		cmp	r3, #3
 1392 0046 ECDD     		ble	.L57
 1393              	.LBE35:
  77:Core/Src/main.c ****         memcpy(t, rk + i - 4, 4);
 1394              		.loc 1 77 31 is_stmt 1 discriminator 2 view .LVU367
  77:Core/Src/main.c ****         memcpy(t, rk + i - 4, 4);
 1395              		.loc 1 77 33 is_stmt 0 discriminator 2 view .LVU368
 1396 0048 0430     		adds	r0, r0, #4
 1397              	.LVL106:
 1398              	.L53:
  77:Core/Src/main.c ****         memcpy(t, rk + i - 4, 4);
 1399              		.loc 1 77 22 is_stmt 1 discriminator 1 view .LVU369
  77:Core/Src/main.c ****         memcpy(t, rk + i - 4, 4);
 1400              		.loc 1 77 5 is_stmt 0 discriminator 1 view .LVU370
 1401 004a AF28     		cmp	r0, #175
 1402 004c 27DC     		bgt	.L60
  78:Core/Src/main.c ****         if (i % 16 == 0) {
 1403              		.loc 1 78 9 is_stmt 1 view .LVU371
  78:Core/Src/main.c ****         if (i % 16 == 0) {
 1404              		.loc 1 78 26 is_stmt 0 view .LVU372
 1405 004e 031F     		subs	r3, r0, #4
 1406 0050 CB58     		ldr	r3, [r1, r3]	@ unaligned
  78:Core/Src/main.c ****         if (i % 16 == 0) {
 1407              		.loc 1 78 9 view .LVU373
 1408 0052 0193     		str	r3, [sp, #4]
  79:Core/Src/main.c ****             uint8_t tmp = t[0];
 1409              		.loc 1 79 9 is_stmt 1 view .LVU374
  79:Core/Src/main.c ****             uint8_t tmp = t[0];
 1410              		.loc 1 79 12 is_stmt 0 view .LVU375
 1411 0054 10F00F0F 		tst	r0, #15
 1412 0058 1FD1     		bne	.L54
 1413              	.LBB36:
  80:Core/Src/main.c ****             t[0] = aes_sbox[t[1]] ^ aes_rcon[i/16];
 1414              		.loc 1 80 13 is_stmt 1 view .LVU376
 1415              	.LVL107:
  81:Core/Src/main.c ****             t[1] = aes_sbox[t[2]];
 1416              		.loc 1 81 13 view .LVU377
  81:Core/Src/main.c ****             t[1] = aes_sbox[t[2]];
 1417              		.loc 1 81 30 is_stmt 0 view .LVU378
 1418 005a C3F30722 		ubfx	r2, r3, #8, #8
  81:Core/Src/main.c ****             t[1] = aes_sbox[t[2]];
 1419              		.loc 1 81 28 view .LVU379
 1420 005e 114C     		ldr	r4, .L62
 1421 0060 14F802C0 		ldrb	ip, [r4, r2]	@ zero_extendqisi2
  81:Core/Src/main.c ****             t[1] = aes_sbox[t[2]];
 1422              		.loc 1 81 47 view .LVU380
 1423 0064 0246     		mov	r2, r0
ARM GAS  /tmp/ccxe0c4o.s 			page 36


 1424 0066 0028     		cmp	r0, #0
 1425 0068 D8DB     		blt	.L61
 1426              	.L55:
  81:Core/Src/main.c ****             t[1] = aes_sbox[t[2]];
 1427              		.loc 1 81 47 view .LVU381
 1428 006a 1211     		asrs	r2, r2, #4
  81:Core/Src/main.c ****             t[1] = aes_sbox[t[2]];
 1429              		.loc 1 81 45 view .LVU382
 1430 006c 0E4C     		ldr	r4, .L62+4
 1431 006e A25C     		ldrb	r2, [r4, r2]	@ zero_extendqisi2
  81:Core/Src/main.c ****             t[1] = aes_sbox[t[2]];
 1432              		.loc 1 81 18 view .LVU383
 1433 0070 8CEA0202 		eor	r2, ip, r2
 1434 0074 8DF80420 		strb	r2, [sp, #4]
  82:Core/Src/main.c ****             t[2] = aes_sbox[t[3]];
 1435              		.loc 1 82 13 is_stmt 1 view .LVU384
  82:Core/Src/main.c ****             t[2] = aes_sbox[t[3]];
 1436              		.loc 1 82 30 is_stmt 0 view .LVU385
 1437 0078 C3F3074C 		ubfx	ip, r3, #16, #8
  82:Core/Src/main.c ****             t[2] = aes_sbox[t[3]];
 1438              		.loc 1 82 28 view .LVU386
 1439 007c 094A     		ldr	r2, .L62
 1440 007e 12F80CC0 		ldrb	ip, [r2, ip]	@ zero_extendqisi2
  82:Core/Src/main.c ****             t[2] = aes_sbox[t[3]];
 1441              		.loc 1 82 18 view .LVU387
 1442 0082 8DF805C0 		strb	ip, [sp, #5]
  83:Core/Src/main.c ****             t[3] = aes_sbox[tmp];
 1443              		.loc 1 83 13 is_stmt 1 view .LVU388
  83:Core/Src/main.c ****             t[3] = aes_sbox[tmp];
 1444              		.loc 1 83 30 is_stmt 0 view .LVU389
 1445 0086 4FEA136C 		lsr	ip, r3, #24
  83:Core/Src/main.c ****             t[3] = aes_sbox[tmp];
 1446              		.loc 1 83 28 view .LVU390
 1447 008a 12F80CC0 		ldrb	ip, [r2, ip]	@ zero_extendqisi2
  83:Core/Src/main.c ****             t[3] = aes_sbox[tmp];
 1448              		.loc 1 83 18 view .LVU391
 1449 008e 8DF806C0 		strb	ip, [sp, #6]
  84:Core/Src/main.c ****         }
 1450              		.loc 1 84 13 is_stmt 1 view .LVU392
  84:Core/Src/main.c ****         }
 1451              		.loc 1 84 28 is_stmt 0 view .LVU393
 1452 0092 DBB2     		uxtb	r3, r3
  84:Core/Src/main.c ****         }
 1453              		.loc 1 84 28 view .LVU394
 1454 0094 D35C     		ldrb	r3, [r2, r3]	@ zero_extendqisi2
 1455              	.LVL108:
  84:Core/Src/main.c ****         }
 1456              		.loc 1 84 18 view .LVU395
 1457 0096 8DF80730 		strb	r3, [sp, #7]
 1458              	.LVL109:
 1459              	.L54:
  84:Core/Src/main.c ****         }
 1460              		.loc 1 84 18 view .LVU396
 1461              	.LBE36:
 1462              	.LBE33:
  74:Core/Src/main.c ****     memcpy(rk, key, 16);
 1463              		.loc 1 74 1 discriminator 1 view .LVU397
ARM GAS  /tmp/ccxe0c4o.s 			page 37


 1464 009a 0023     		movs	r3, #0
 1465 009c D2E7     		b	.L56
 1466              	.L60:
  89:Core/Src/main.c **** 
 1467              		.loc 1 89 1 view .LVU398
 1468 009e 02B0     		add	sp, sp, #8
 1469              	.LCFI26:
 1470              		.cfi_def_cfa_offset 8
 1471              		@ sp needed
 1472 00a0 10BD     		pop	{r4, pc}
 1473              	.L63:
 1474 00a2 00BF     		.align	2
 1475              	.L62:
 1476 00a4 00000000 		.word	.LANCHOR0
 1477 00a8 00000000 		.word	.LANCHOR3
 1478              		.cfi_endproc
 1479              	.LFE66:
 1481              		.section	.text.lorawan_encrypt_payload,"ax",%progbits
 1482              		.align	1
 1483              		.syntax unified
 1484              		.thumb
 1485              		.thumb_func
 1486              		.fpu softvfp
 1488              	lorawan_encrypt_payload:
 1489              	.LVL110:
 1490              	.LFB71:
 199:Core/Src/main.c ****     uint8_t rk[176];
 1491              		.loc 1 199 1 is_stmt 1 view -0
 1492              		.cfi_startproc
 1493              		@ args = 4, pretend = 0, frame = 208
 1494              		@ frame_needed = 0, uses_anonymous_args = 0
 199:Core/Src/main.c ****     uint8_t rk[176];
 1495              		.loc 1 199 1 is_stmt 0 view .LVU400
 1496 0000 2DE9F043 		push	{r4, r5, r6, r7, r8, r9, lr}
 1497              	.LCFI27:
 1498              		.cfi_def_cfa_offset 28
 1499              		.cfi_offset 4, -28
 1500              		.cfi_offset 5, -24
 1501              		.cfi_offset 6, -20
 1502              		.cfi_offset 7, -16
 1503              		.cfi_offset 8, -12
 1504              		.cfi_offset 9, -8
 1505              		.cfi_offset 14, -4
 1506 0004 B5B0     		sub	sp, sp, #212
 1507              	.LCFI28:
 1508              		.cfi_def_cfa_offset 240
 1509 0006 0446     		mov	r4, r0
 1510 0008 8846     		mov	r8, r1
 1511 000a 1E46     		mov	r6, r3
 1512 000c 3C9F     		ldr	r7, [sp, #240]
 200:Core/Src/main.c ****     aes_key_expand(appskey, rk);
 1513              		.loc 1 200 5 is_stmt 1 view .LVU401
 201:Core/Src/main.c ****     int k=(len+15)/16;
 1514              		.loc 1 201 5 view .LVU402
 1515 000e 08A9     		add	r1, sp, #32
 1516              	.LVL111:
 201:Core/Src/main.c ****     int k=(len+15)/16;
ARM GAS  /tmp/ccxe0c4o.s 			page 38


 1517              		.loc 1 201 5 is_stmt 0 view .LVU403
 1518 0010 1046     		mov	r0, r2
 1519              	.LVL112:
 201:Core/Src/main.c ****     int k=(len+15)/16;
 1520              		.loc 1 201 5 view .LVU404
 1521 0012 FFF7FEFF 		bl	aes_key_expand
 1522              	.LVL113:
 202:Core/Src/main.c ****     for(int i=1;i<=k;i++){
 1523              		.loc 1 202 5 is_stmt 1 view .LVU405
 202:Core/Src/main.c ****     for(int i=1;i<=k;i++){
 1524              		.loc 1 202 9 is_stmt 0 view .LVU406
 1525 0016 18F10F09 		adds	r9, r8, #15
 1526 001a 03D4     		bmi	.L73
 1527              	.L65:
 1528 001c 4FEA2919 		asr	r9, r9, #4
 1529              	.LVL114:
 203:Core/Src/main.c ****         uint8_t A[16]={0x01,0,0,0,0, 0x00, /* dir=0 uplink */
 1530              		.loc 1 203 5 is_stmt 1 view .LVU407
 1531              	.LBB37:
 203:Core/Src/main.c ****         uint8_t A[16]={0x01,0,0,0,0, 0x00, /* dir=0 uplink */
 1532              		.loc 1 203 9 view .LVU408
 203:Core/Src/main.c ****         uint8_t A[16]={0x01,0,0,0,0, 0x00, /* dir=0 uplink */
 1533              		.loc 1 203 13 is_stmt 0 view .LVU409
 1534 0020 0125     		movs	r5, #1
 203:Core/Src/main.c ****         uint8_t A[16]={0x01,0,0,0,0, 0x00, /* dir=0 uplink */
 1535              		.loc 1 203 5 view .LVU410
 1536 0022 12E0     		b	.L66
 1537              	.LVL115:
 1538              	.L73:
 203:Core/Src/main.c ****         uint8_t A[16]={0x01,0,0,0,0, 0x00, /* dir=0 uplink */
 1539              		.loc 1 203 5 view .LVU411
 1540              	.LBE37:
 202:Core/Src/main.c ****     for(int i=1;i<=k;i++){
 1541              		.loc 1 202 9 view .LVU412
 1542 0024 09F10F09 		add	r9, r9, #15
 1543 0028 F8E7     		b	.L65
 1544              	.LVL116:
 1545              	.L69:
 1546              	.LBB42:
 1547              	.LBB38:
 1548              	.LBB39:
 214:Core/Src/main.c ****     }
 1549              		.loc 1 214 30 is_stmt 1 discriminator 3 view .LVU413
 214:Core/Src/main.c ****     }
 1550              		.loc 1 214 48 is_stmt 0 discriminator 3 view .LVU414
 1551 002a 02EB0E03 		add	r3, r2, lr
 214:Core/Src/main.c ****     }
 1552              		.loc 1 214 51 discriminator 3 view .LVU415
 1553 002e 02F1D001 		add	r1, r2, #208
 1554 0032 6944     		add	r1, sp, r1
 1555 0034 11F8C0CC 		ldrb	ip, [r1, #-192]	@ zero_extendqisi2
 214:Core/Src/main.c ****     }
 1556              		.loc 1 214 48 discriminator 3 view .LVU416
 1557 0038 E15C     		ldrb	r1, [r4, r3]	@ zero_extendqisi2
 1558 003a 8CEA010C 		eor	ip, ip, r1
 1559 003e 04F803C0 		strb	ip, [r4, r3]
 214:Core/Src/main.c ****     }
ARM GAS  /tmp/ccxe0c4o.s 			page 39


 1560              		.loc 1 214 25 is_stmt 1 discriminator 3 view .LVU417
 214:Core/Src/main.c ****     }
 1561              		.loc 1 214 26 is_stmt 0 discriminator 3 view .LVU418
 1562 0042 0132     		adds	r2, r2, #1
 1563              	.LVL117:
 1564              	.L68:
 214:Core/Src/main.c ****     }
 1565              		.loc 1 214 21 is_stmt 1 discriminator 1 view .LVU419
 214:Core/Src/main.c ****     }
 1566              		.loc 1 214 9 is_stmt 0 discriminator 1 view .LVU420
 1567 0044 9042     		cmp	r0, r2
 1568 0046 F0DC     		bgt	.L69
 214:Core/Src/main.c ****     }
 1569              		.loc 1 214 9 discriminator 1 view .LVU421
 1570              	.LBE39:
 1571              	.LBE38:
 203:Core/Src/main.c ****         uint8_t A[16]={0x01,0,0,0,0, 0x00, /* dir=0 uplink */
 1572              		.loc 1 203 22 is_stmt 1 discriminator 2 view .LVU422
 203:Core/Src/main.c ****         uint8_t A[16]={0x01,0,0,0,0, 0x00, /* dir=0 uplink */
 1573              		.loc 1 203 23 is_stmt 0 discriminator 2 view .LVU423
 1574 0048 0135     		adds	r5, r5, #1
 1575              	.LVL118:
 1576              	.L66:
 203:Core/Src/main.c ****         uint8_t A[16]={0x01,0,0,0,0, 0x00, /* dir=0 uplink */
 1577              		.loc 1 203 17 is_stmt 1 discriminator 1 view .LVU424
 203:Core/Src/main.c ****         uint8_t A[16]={0x01,0,0,0,0, 0x00, /* dir=0 uplink */
 1578              		.loc 1 203 5 is_stmt 0 discriminator 1 view .LVU425
 1579 004a 4D45     		cmp	r5, r9
 1580 004c 3EDC     		bgt	.L74
 1581              	.LBB41:
 204:Core/Src/main.c ****                        devaddr_le[0],devaddr_le[1],devaddr_le[2],devaddr_le[3],
 1582              		.loc 1 204 9 is_stmt 1 view .LVU426
 204:Core/Src/main.c ****                        devaddr_le[0],devaddr_le[1],devaddr_le[2],devaddr_le[3],
 1583              		.loc 1 204 17 is_stmt 0 view .LVU427
 1584 004e 0123     		movs	r3, #1
 1585 0050 8DF80030 		strb	r3, [sp]
 1586 0054 0023     		movs	r3, #0
 1587 0056 8DF80130 		strb	r3, [sp, #1]
 1588 005a 8DF80230 		strb	r3, [sp, #2]
 1589 005e 8DF80330 		strb	r3, [sp, #3]
 1590 0062 8DF80430 		strb	r3, [sp, #4]
 1591 0066 8DF80530 		strb	r3, [sp, #5]
 205:Core/Src/main.c ****                        (uint8_t)(fcnt&0xFF),(uint8_t)((fcnt>>8)&0xFF),
 1592              		.loc 1 205 34 view .LVU428
 1593 006a 3278     		ldrb	r2, [r6]	@ zero_extendqisi2
 204:Core/Src/main.c ****                        devaddr_le[0],devaddr_le[1],devaddr_le[2],devaddr_le[3],
 1594              		.loc 1 204 17 view .LVU429
 1595 006c 8DF80620 		strb	r2, [sp, #6]
 1596 0070 7278     		ldrb	r2, [r6, #1]	@ zero_extendqisi2
 1597 0072 8DF80720 		strb	r2, [sp, #7]
 1598 0076 B278     		ldrb	r2, [r6, #2]	@ zero_extendqisi2
 1599 0078 8DF80820 		strb	r2, [sp, #8]
 1600 007c F278     		ldrb	r2, [r6, #3]	@ zero_extendqisi2
 1601 007e 8DF80920 		strb	r2, [sp, #9]
 1602 0082 8DF80A70 		strb	r7, [sp, #10]
 206:Core/Src/main.c ****                        (uint8_t)((fcnt>>16)&0xFF),(uint8_t)((fcnt>>24)&0xFF),
 1603              		.loc 1 206 45 view .LVU430
ARM GAS  /tmp/ccxe0c4o.s 			page 40


 1604 0086 C7F30722 		ubfx	r2, r7, #8, #8
 204:Core/Src/main.c ****                        devaddr_le[0],devaddr_le[1],devaddr_le[2],devaddr_le[3],
 1605              		.loc 1 204 17 view .LVU431
 1606 008a 8DF80B20 		strb	r2, [sp, #11]
 207:Core/Src/main.c ****                        0x00, (uint8_t)i};
 1607              		.loc 1 207 24 view .LVU432
 1608 008e C7F30742 		ubfx	r2, r7, #16, #8
 204:Core/Src/main.c ****                        devaddr_le[0],devaddr_le[1],devaddr_le[2],devaddr_le[3],
 1609              		.loc 1 204 17 view .LVU433
 1610 0092 8DF80C20 		strb	r2, [sp, #12]
 207:Core/Src/main.c ****                        0x00, (uint8_t)i};
 1611              		.loc 1 207 51 view .LVU434
 1612 0096 3A0E     		lsrs	r2, r7, #24
 204:Core/Src/main.c ****                        devaddr_le[0],devaddr_le[1],devaddr_le[2],devaddr_le[3],
 1613              		.loc 1 204 17 view .LVU435
 1614 0098 8DF80D20 		strb	r2, [sp, #13]
 1615 009c 8DF80E30 		strb	r3, [sp, #14]
 1616 00a0 8DF80F50 		strb	r5, [sp, #15]
 209:Core/Src/main.c ****         memcpy(S,A,16);
 1617              		.loc 1 209 9 is_stmt 1 view .LVU436
 210:Core/Src/main.c ****         aes_encrypt_block(rk,S);
 1618              		.loc 1 210 9 view .LVU437
 1619 00a4 0DF1100C 		add	ip, sp, #16
 1620 00a8 6B46     		mov	r3, sp
 1621 00aa 0FCB     		ldm	r3, {r0, r1, r2, r3}
 1622 00ac 8CE80F00 		stm	ip, {r0, r1, r2, r3}
 211:Core/Src/main.c ****         int blockstart=(i-1)*16;
 1623              		.loc 1 211 9 view .LVU438
 1624 00b0 6146     		mov	r1, ip
 1625 00b2 08A8     		add	r0, sp, #32
 1626 00b4 FFF7FEFF 		bl	aes_encrypt_block
 1627              	.LVL119:
 212:Core/Src/main.c ****         int n=len-blockstart; if(n>16) n=16;
 1628              		.loc 1 212 9 view .LVU439
 212:Core/Src/main.c ****         int n=len-blockstart; if(n>16) n=16;
 1629              		.loc 1 212 26 is_stmt 0 view .LVU440
 1630 00b8 681E     		subs	r0, r5, #1
 212:Core/Src/main.c ****         int n=len-blockstart; if(n>16) n=16;
 1631              		.loc 1 212 13 view .LVU441
 1632 00ba 4FEA001E 		lsl	lr, r0, #4
 1633              	.LVL120:
 213:Core/Src/main.c ****         for(int j=0;j<n;j++) data[blockstart+j]^=S[j];
 1634              		.loc 1 213 9 is_stmt 1 view .LVU442
 213:Core/Src/main.c ****         for(int j=0;j<n;j++) data[blockstart+j]^=S[j];
 1635              		.loc 1 213 13 is_stmt 0 view .LVU443
 1636 00be A8EB0010 		sub	r0, r8, r0, lsl #4
 1637              	.LVL121:
 213:Core/Src/main.c ****         for(int j=0;j<n;j++) data[blockstart+j]^=S[j];
 1638              		.loc 1 213 31 is_stmt 1 view .LVU444
 213:Core/Src/main.c ****         for(int j=0;j<n;j++) data[blockstart+j]^=S[j];
 1639              		.loc 1 213 33 is_stmt 0 view .LVU445
 1640 00c2 1028     		cmp	r0, #16
 1641 00c4 00DD     		ble	.L67
 213:Core/Src/main.c ****         for(int j=0;j<n;j++) data[blockstart+j]^=S[j];
 1642              		.loc 1 213 41 view .LVU446
 1643 00c6 1020     		movs	r0, #16
 1644              	.LVL122:
ARM GAS  /tmp/ccxe0c4o.s 			page 41


 1645              	.L67:
 214:Core/Src/main.c ****     }
 1646              		.loc 1 214 9 is_stmt 1 view .LVU447
 1647              	.LBB40:
 214:Core/Src/main.c ****     }
 1648              		.loc 1 214 13 view .LVU448
 214:Core/Src/main.c ****     }
 1649              		.loc 1 214 17 is_stmt 0 view .LVU449
 1650 00c8 0022     		movs	r2, #0
 214:Core/Src/main.c ****     }
 1651              		.loc 1 214 9 view .LVU450
 1652 00ca BBE7     		b	.L68
 1653              	.LVL123:
 1654              	.L74:
 214:Core/Src/main.c ****     }
 1655              		.loc 1 214 9 view .LVU451
 1656              	.LBE40:
 1657              	.LBE41:
 1658              	.LBE42:
 216:Core/Src/main.c **** 
 1659              		.loc 1 216 1 view .LVU452
 1660 00cc 35B0     		add	sp, sp, #212
 1661              	.LCFI29:
 1662              		.cfi_def_cfa_offset 28
 1663              		@ sp needed
 1664 00ce BDE8F083 		pop	{r4, r5, r6, r7, r8, r9, pc}
 216:Core/Src/main.c **** 
 1665              		.loc 1 216 1 view .LVU453
 1666              		.cfi_endproc
 1667              	.LFE71:
 1669              		.section	.text.aes_cmac,"ax",%progbits
 1670              		.align	1
 1671              		.syntax unified
 1672              		.thumb
 1673              		.thumb_func
 1674              		.fpu softvfp
 1676              	aes_cmac:
 1677              	.LVL124:
 1678              	.LFB70:
 151:Core/Src/main.c ****     uint8_t rk[176];
 1679              		.loc 1 151 1 is_stmt 1 view -0
 1680              		.cfi_startproc
 1681              		@ args = 0, pretend = 0, frame = 240
 1682              		@ frame_needed = 0, uses_anonymous_args = 0
 151:Core/Src/main.c ****     uint8_t rk[176];
 1683              		.loc 1 151 1 is_stmt 0 view .LVU455
 1684 0000 F0B5     		push	{r4, r5, r6, r7, lr}
 1685              	.LCFI30:
 1686              		.cfi_def_cfa_offset 20
 1687              		.cfi_offset 4, -20
 1688              		.cfi_offset 5, -16
 1689              		.cfi_offset 6, -12
 1690              		.cfi_offset 7, -8
 1691              		.cfi_offset 14, -4
 1692 0002 BDB0     		sub	sp, sp, #244
 1693              	.LCFI31:
 1694              		.cfi_def_cfa_offset 264
ARM GAS  /tmp/ccxe0c4o.s 			page 42


 1695 0004 0D46     		mov	r5, r1
 1696 0006 1446     		mov	r4, r2
 1697 0008 1F46     		mov	r7, r3
 152:Core/Src/main.c ****     aes_key_expand(key, rk);
 1698              		.loc 1 152 5 is_stmt 1 view .LVU456
 153:Core/Src/main.c ****     uint8_t k1[16],k2[16];
 1699              		.loc 1 153 5 view .LVU457
 1700 000a 10A9     		add	r1, sp, #64
 1701              	.LVL125:
 153:Core/Src/main.c ****     uint8_t k1[16],k2[16];
 1702              		.loc 1 153 5 is_stmt 0 view .LVU458
 1703 000c FFF7FEFF 		bl	aes_key_expand
 1704              	.LVL126:
 154:Core/Src/main.c ****     cmac_subkey(rk,k1,k2);
 1705              		.loc 1 154 5 is_stmt 1 view .LVU459
 155:Core/Src/main.c **** 
 1706              		.loc 1 155 5 view .LVU460
 1707 0010 08AA     		add	r2, sp, #32
 1708 0012 0CA9     		add	r1, sp, #48
 1709 0014 10A8     		add	r0, sp, #64
 1710 0016 FFF7FEFF 		bl	cmac_subkey
 1711              	.LVL127:
 157:Core/Src/main.c ****     int flag_complete;
 1712              		.loc 1 157 5 view .LVU461
 157:Core/Src/main.c ****     int flag_complete;
 1713              		.loc 1 157 9 is_stmt 0 view .LVU462
 1714 001a 14F10F03 		adds	r3, r4, #15
 1715 001e 13D4     		bmi	.L97
 1716              	.L76:
 1717              	.LVL128:
 158:Core/Src/main.c ****     if(n==0){ n=1; flag_complete=0; }
 1718              		.loc 1 158 5 is_stmt 1 view .LVU463
 159:Core/Src/main.c ****     else flag_complete=(len%16==0);
 1719              		.loc 1 159 5 view .LVU464
 159:Core/Src/main.c ****     else flag_complete=(len%16==0);
 1720              		.loc 1 159 7 is_stmt 0 view .LVU465
 1721 0020 1B11     		asrs	r3, r3, #4
 1722              	.LVL129:
 159:Core/Src/main.c ****     else flag_complete=(len%16==0);
 1723              		.loc 1 159 7 view .LVU466
 1724 0022 13D0     		beq	.L91
 160:Core/Src/main.c **** 
 1725              		.loc 1 160 10 is_stmt 1 view .LVU467
 160:Core/Src/main.c **** 
 1726              		.loc 1 160 31 is_stmt 0 view .LVU468
 1727 0024 14F00F0F 		tst	r4, #15
 1728              	.LVL130:
 157:Core/Src/main.c ****     int flag_complete;
 1729              		.loc 1 157 9 view .LVU469
 1730 0028 1E46     		mov	r6, r3
 160:Core/Src/main.c **** 
 1731              		.loc 1 160 23 view .LVU470
 1732 002a 0CBF     		ite	eq
 1733 002c 0123     		moveq	r3, #1
 1734              	.LVL131:
 160:Core/Src/main.c **** 
 1735              		.loc 1 160 23 view .LVU471
ARM GAS  /tmp/ccxe0c4o.s 			page 43


 1736 002e 0023     		movne	r3, #0
 1737              	.LVL132:
 1738              	.L77:
 162:Core/Src/main.c ****     uint8_t M_last[16];
 1739              		.loc 1 162 5 is_stmt 1 view .LVU472
 162:Core/Src/main.c ****     uint8_t M_last[16];
 1740              		.loc 1 162 13 is_stmt 0 view .LVU473
 1741 0030 0022     		movs	r2, #0
 1742 0032 0492     		str	r2, [sp, #16]
 1743 0034 0592     		str	r2, [sp, #20]
 1744 0036 0692     		str	r2, [sp, #24]
 1745 0038 0792     		str	r2, [sp, #28]
 163:Core/Src/main.c **** 
 1746              		.loc 1 163 5 is_stmt 1 view .LVU474
 166:Core/Src/main.c ****     if(flag_complete){
 1747              		.loc 1 166 5 view .LVU475
 166:Core/Src/main.c ****     if(flag_complete){
 1748              		.loc 1 166 22 is_stmt 0 view .LVU476
 1749 003a 013E     		subs	r6, r6, #1
 1750              	.LVL133:
 166:Core/Src/main.c ****     if(flag_complete){
 1751              		.loc 1 166 9 view .LVU477
 1752 003c 4FEA061C 		lsl	ip, r6, #4
 1753              	.LVL134:
 167:Core/Src/main.c ****         for(int i=0;i<16;i++) M_last[i]=msg[last_start+i]^k1[i];
 1754              		.loc 1 167 5 is_stmt 1 view .LVU478
 167:Core/Src/main.c ****         for(int i=0;i<16;i++) M_last[i]=msg[last_start+i]^k1[i];
 1755              		.loc 1 167 7 is_stmt 0 view .LVU479
 1756 0040 B3B9     		cbnz	r3, .L92
 1757              	.LBB43:
 170:Core/Src/main.c ****         for(int i=0;i<16;i++){
 1758              		.loc 1 170 9 is_stmt 1 view .LVU480
 170:Core/Src/main.c ****         for(int i=0;i<16;i++){
 1759              		.loc 1 170 13 is_stmt 0 view .LVU481
 1760 0042 A4EB0C00 		sub	r0, r4, ip
 1761              	.LVL135:
 171:Core/Src/main.c ****             uint8_t b;
 1762              		.loc 1 171 9 is_stmt 1 view .LVU482
 1763              	.LBB44:
 171:Core/Src/main.c ****             uint8_t b;
 1764              		.loc 1 171 13 view .LVU483
 171:Core/Src/main.c ****             uint8_t b;
 1765              		.loc 1 171 9 is_stmt 0 view .LVU484
 1766 0046 22E0     		b	.L82
 1767              	.LVL136:
 1768              	.L97:
 171:Core/Src/main.c ****             uint8_t b;
 1769              		.loc 1 171 9 view .LVU485
 1770              	.LBE44:
 1771              	.LBE43:
 157:Core/Src/main.c ****     int flag_complete;
 1772              		.loc 1 157 9 view .LVU486
 1773 0048 0F33     		adds	r3, r3, #15
 1774 004a E9E7     		b	.L76
 1775              	.LVL137:
 1776              	.L91:
 159:Core/Src/main.c ****     else flag_complete=(len%16==0);
ARM GAS  /tmp/ccxe0c4o.s 			page 44


 1777              		.loc 1 159 16 view .LVU487
 1778 004c 0126     		movs	r6, #1
 1779 004e EFE7     		b	.L77
 1780              	.LVL138:
 1781              	.L80:
 1782              	.LBB48:
 168:Core/Src/main.c ****     } else {
 1783              		.loc 1 168 31 is_stmt 1 discriminator 3 view .LVU488
 168:Core/Src/main.c ****     } else {
 1784              		.loc 1 168 55 is_stmt 0 discriminator 3 view .LVU489
 1785 0050 03EB0C02 		add	r2, r3, ip
 168:Core/Src/main.c ****     } else {
 1786              		.loc 1 168 44 discriminator 3 view .LVU490
 1787 0054 AA5C     		ldrb	r2, [r5, r2]	@ zero_extendqisi2
 168:Core/Src/main.c ****     } else {
 1788              		.loc 1 168 61 discriminator 3 view .LVU491
 1789 0056 03F1F001 		add	r1, r3, #240
 1790 005a 6944     		add	r1, sp, r1
 1791 005c 11F8C00C 		ldrb	r0, [r1, #-192]	@ zero_extendqisi2
 168:Core/Src/main.c ****     } else {
 1792              		.loc 1 168 40 discriminator 3 view .LVU492
 1793 0060 4240     		eors	r2, r2, r0
 1794 0062 01F8F02C 		strb	r2, [r1, #-240]
 168:Core/Src/main.c ****     } else {
 1795              		.loc 1 168 26 is_stmt 1 discriminator 3 view .LVU493
 168:Core/Src/main.c ****     } else {
 1796              		.loc 1 168 27 is_stmt 0 discriminator 3 view .LVU494
 1797 0066 0133     		adds	r3, r3, #1
 1798              	.LVL139:
 1799              	.L78:
 168:Core/Src/main.c ****     } else {
 1800              		.loc 1 168 21 is_stmt 1 discriminator 1 view .LVU495
 168:Core/Src/main.c ****     } else {
 1801              		.loc 1 168 9 is_stmt 0 discriminator 1 view .LVU496
 1802 0068 0F2B     		cmp	r3, #15
 1803 006a F1DD     		ble	.L80
 1804              	.LVL140:
 1805              	.L81:
 168:Core/Src/main.c ****     } else {
 1806              		.loc 1 168 9 discriminator 1 view .LVU497
 1807              	.LBE48:
 1808              	.LBB49:
 1809              	.LBB50:
 182:Core/Src/main.c ****         aes_encrypt_block(rk,X);
 1810              		.loc 1 182 17 discriminator 1 view .LVU498
 1811 006c 0024     		movs	r4, #0
 1812 006e 2CE0     		b	.L86
 1813              	.LVL141:
 1814              	.L92:
 182:Core/Src/main.c ****         aes_encrypt_block(rk,X);
 1815              		.loc 1 182 17 discriminator 1 view .LVU499
 1816              	.LBE50:
 1817              	.LBE49:
 1818              	.LBB53:
 168:Core/Src/main.c ****     } else {
 1819              		.loc 1 168 17 view .LVU500
 1820 0070 0023     		movs	r3, #0
ARM GAS  /tmp/ccxe0c4o.s 			page 45


 1821              	.LVL142:
 168:Core/Src/main.c ****     } else {
 1822              		.loc 1 168 17 view .LVU501
 1823 0072 F9E7     		b	.L78
 1824              	.LVL143:
 1825              	.L83:
 168:Core/Src/main.c ****     } else {
 1826              		.loc 1 168 17 view .LVU502
 1827              	.LBE53:
 1828              	.LBB54:
 1829              	.LBB47:
 1830              	.LBB45:
 174:Core/Src/main.c ****             else b=0x00;
 1831              		.loc 1 174 18 is_stmt 1 view .LVU503
 174:Core/Src/main.c ****             else b=0x00;
 1832              		.loc 1 174 20 is_stmt 0 view .LVU504
 1833 0074 8342     		cmp	r3, r0
 1834 0076 12D0     		beq	.L98
 175:Core/Src/main.c ****             M_last[i]=b^k2[i];
 1835              		.loc 1 175 19 view .LVU505
 1836 0078 0024     		movs	r4, #0
 1837              	.L84:
 1838              	.LVL144:
 176:Core/Src/main.c ****         }
 1839              		.loc 1 176 13 is_stmt 1 discriminator 2 view .LVU506
 176:Core/Src/main.c ****         }
 1840              		.loc 1 176 27 is_stmt 0 discriminator 2 view .LVU507
 1841 007a 03F1F002 		add	r2, r3, #240
 1842 007e 0DEB0201 		add	r1, sp, r2
 1843 0082 11F8D02C 		ldrb	r2, [r1, #-208]	@ zero_extendqisi2
 176:Core/Src/main.c ****         }
 1844              		.loc 1 176 22 discriminator 2 view .LVU508
 1845 0086 6240     		eors	r2, r2, r4
 1846 0088 01F8F02C 		strb	r2, [r1, #-240]
 1847              	.LBE45:
 171:Core/Src/main.c ****             uint8_t b;
 1848              		.loc 1 171 26 is_stmt 1 discriminator 2 view .LVU509
 171:Core/Src/main.c ****             uint8_t b;
 1849              		.loc 1 171 27 is_stmt 0 discriminator 2 view .LVU510
 1850 008c 0133     		adds	r3, r3, #1
 1851              	.LVL145:
 1852              	.L82:
 171:Core/Src/main.c ****             uint8_t b;
 1853              		.loc 1 171 21 is_stmt 1 discriminator 1 view .LVU511
 171:Core/Src/main.c ****             uint8_t b;
 1854              		.loc 1 171 9 is_stmt 0 discriminator 1 view .LVU512
 1855 008e 0F2B     		cmp	r3, #15
 1856 0090 ECDC     		bgt	.L81
 1857              	.LBB46:
 172:Core/Src/main.c ****             if(i<rem) b=msg[last_start+i];
 1858              		.loc 1 172 13 is_stmt 1 view .LVU513
 173:Core/Src/main.c ****             else if(i==rem) b=0x80;
 1859              		.loc 1 173 13 view .LVU514
 173:Core/Src/main.c ****             else if(i==rem) b=0x80;
 1860              		.loc 1 173 15 is_stmt 0 view .LVU515
 1861 0092 8342     		cmp	r3, r0
 1862 0094 EEDA     		bge	.L83
ARM GAS  /tmp/ccxe0c4o.s 			page 46


 173:Core/Src/main.c ****             else if(i==rem) b=0x80;
 1863              		.loc 1 173 23 is_stmt 1 discriminator 1 view .LVU516
 173:Core/Src/main.c ****             else if(i==rem) b=0x80;
 1864              		.loc 1 173 39 is_stmt 0 discriminator 1 view .LVU517
 1865 0096 03EB0C02 		add	r2, r3, ip
 173:Core/Src/main.c ****             else if(i==rem) b=0x80;
 1866              		.loc 1 173 24 discriminator 1 view .LVU518
 1867 009a AC5C     		ldrb	r4, [r5, r2]	@ zero_extendqisi2
 1868              	.LVL146:
 173:Core/Src/main.c ****             else if(i==rem) b=0x80;
 1869              		.loc 1 173 24 discriminator 1 view .LVU519
 1870 009c EDE7     		b	.L84
 1871              	.LVL147:
 1872              	.L98:
 174:Core/Src/main.c ****             else b=0x00;
 1873              		.loc 1 174 30 view .LVU520
 1874 009e 8024     		movs	r4, #128
 1875 00a0 EBE7     		b	.L84
 1876              	.LVL148:
 1877              	.L87:
 174:Core/Src/main.c ****             else b=0x00;
 1878              		.loc 1 174 30 view .LVU521
 1879              	.LBE46:
 1880              	.LBE47:
 1881              	.LBE54:
 1882              	.LBB55:
 1883              	.LBB51:
 182:Core/Src/main.c ****         aes_encrypt_block(rk,X);
 1884              		.loc 1 182 31 is_stmt 1 discriminator 3 view .LVU522
 182:Core/Src/main.c ****         aes_encrypt_block(rk,X);
 1885              		.loc 1 182 45 is_stmt 0 discriminator 3 view .LVU523
 1886 00a2 02EB0413 		add	r3, r2, r4, lsl #4
 182:Core/Src/main.c ****         aes_encrypt_block(rk,X);
 1887              		.loc 1 182 40 discriminator 3 view .LVU524
 1888 00a6 E85C     		ldrb	r0, [r5, r3]	@ zero_extendqisi2
 182:Core/Src/main.c ****         aes_encrypt_block(rk,X);
 1889              		.loc 1 182 35 discriminator 3 view .LVU525
 1890 00a8 02F1F003 		add	r3, r2, #240
 1891 00ac 0DEB030C 		add	ip, sp, r3
 1892 00b0 1CF8E03C 		ldrb	r3, [ip, #-224]	@ zero_extendqisi2
 1893 00b4 5840     		eors	r0, r0, r3
 1894 00b6 0CF8E00C 		strb	r0, [ip, #-224]
 182:Core/Src/main.c ****         aes_encrypt_block(rk,X);
 1895              		.loc 1 182 26 is_stmt 1 discriminator 3 view .LVU526
 182:Core/Src/main.c ****         aes_encrypt_block(rk,X);
 1896              		.loc 1 182 27 is_stmt 0 discriminator 3 view .LVU527
 1897 00ba 0132     		adds	r2, r2, #1
 1898              	.LVL149:
 1899              	.L88:
 182:Core/Src/main.c ****         aes_encrypt_block(rk,X);
 1900              		.loc 1 182 21 is_stmt 1 discriminator 1 view .LVU528
 182:Core/Src/main.c ****         aes_encrypt_block(rk,X);
 1901              		.loc 1 182 9 is_stmt 0 discriminator 1 view .LVU529
 1902 00bc 0F2A     		cmp	r2, #15
 1903 00be F0DD     		ble	.L87
 1904              	.LBE51:
 183:Core/Src/main.c ****     }
ARM GAS  /tmp/ccxe0c4o.s 			page 47


 1905              		.loc 1 183 9 is_stmt 1 discriminator 2 view .LVU530
 1906 00c0 04A9     		add	r1, sp, #16
 1907 00c2 10A8     		add	r0, sp, #64
 1908 00c4 FFF7FEFF 		bl	aes_encrypt_block
 1909              	.LVL150:
 181:Core/Src/main.c ****         for(int j=0;j<16;j++) X[j]^=msg[i*16+j];
 1910              		.loc 1 181 23 discriminator 2 view .LVU531
 181:Core/Src/main.c ****         for(int j=0;j<16;j++) X[j]^=msg[i*16+j];
 1911              		.loc 1 181 24 is_stmt 0 discriminator 2 view .LVU532
 1912 00c8 0134     		adds	r4, r4, #1
 1913              	.LVL151:
 1914              	.L86:
 181:Core/Src/main.c ****         for(int j=0;j<16;j++) X[j]^=msg[i*16+j];
 1915              		.loc 1 181 17 is_stmt 1 discriminator 1 view .LVU533
 181:Core/Src/main.c ****         for(int j=0;j<16;j++) X[j]^=msg[i*16+j];
 1916              		.loc 1 181 5 is_stmt 0 discriminator 1 view .LVU534
 1917 00ca A642     		cmp	r6, r4
 1918 00cc 01DD     		ble	.L99
 1919              	.LBB52:
 182:Core/Src/main.c ****         aes_encrypt_block(rk,X);
 1920              		.loc 1 182 17 view .LVU535
 1921 00ce 0022     		movs	r2, #0
 1922 00d0 F4E7     		b	.L88
 1923              	.L99:
 1924              	.LBE52:
 1925              	.LBE55:
 1926              	.LBB56:
 185:Core/Src/main.c ****     aes_encrypt_block(rk,X);
 1927              		.loc 1 185 13 view .LVU536
 1928 00d2 0023     		movs	r3, #0
 1929 00d4 0AE0     		b	.L89
 1930              	.LVL152:
 1931              	.L90:
 185:Core/Src/main.c ****     aes_encrypt_block(rk,X);
 1932              		.loc 1 185 27 is_stmt 1 discriminator 3 view .LVU537
 185:Core/Src/main.c ****     aes_encrypt_block(rk,X);
 1933              		.loc 1 185 39 is_stmt 0 discriminator 3 view .LVU538
 1934 00d6 03F1F002 		add	r2, r3, #240
 1935 00da 6A44     		add	r2, sp, r2
 1936 00dc 12F8F01C 		ldrb	r1, [r2, #-240]	@ zero_extendqisi2
 185:Core/Src/main.c ****     aes_encrypt_block(rk,X);
 1937              		.loc 1 185 31 discriminator 3 view .LVU539
 1938 00e0 12F8E00C 		ldrb	r0, [r2, #-224]	@ zero_extendqisi2
 1939 00e4 4140     		eors	r1, r1, r0
 1940 00e6 02F8E01C 		strb	r1, [r2, #-224]
 185:Core/Src/main.c ****     aes_encrypt_block(rk,X);
 1941              		.loc 1 185 22 is_stmt 1 discriminator 3 view .LVU540
 185:Core/Src/main.c ****     aes_encrypt_block(rk,X);
 1942              		.loc 1 185 23 is_stmt 0 discriminator 3 view .LVU541
 1943 00ea 0133     		adds	r3, r3, #1
 1944              	.LVL153:
 1945              	.L89:
 185:Core/Src/main.c ****     aes_encrypt_block(rk,X);
 1946              		.loc 1 185 17 is_stmt 1 discriminator 1 view .LVU542
 185:Core/Src/main.c ****     aes_encrypt_block(rk,X);
 1947              		.loc 1 185 5 is_stmt 0 discriminator 1 view .LVU543
 1948 00ec 0F2B     		cmp	r3, #15
ARM GAS  /tmp/ccxe0c4o.s 			page 48


 1949 00ee F2DD     		ble	.L90
 1950              	.LBE56:
 186:Core/Src/main.c ****     memcpy(mac,X,16);
 1951              		.loc 1 186 5 is_stmt 1 view .LVU544
 1952 00f0 04A9     		add	r1, sp, #16
 1953 00f2 10A8     		add	r0, sp, #64
 1954 00f4 FFF7FEFF 		bl	aes_encrypt_block
 1955              	.LVL154:
 187:Core/Src/main.c **** }
 1956              		.loc 1 187 5 view .LVU545
 1957 00f8 04AC     		add	r4, sp, #16
 1958              	.LVL155:
 187:Core/Src/main.c **** }
 1959              		.loc 1 187 5 is_stmt 0 view .LVU546
 1960 00fa 0FCC     		ldmia	r4!, {r0, r1, r2, r3}
 1961 00fc 3860     		str	r0, [r7]	@ unaligned
 1962 00fe 7960     		str	r1, [r7, #4]	@ unaligned
 1963 0100 BA60     		str	r2, [r7, #8]	@ unaligned
 1964 0102 FB60     		str	r3, [r7, #12]	@ unaligned
 188:Core/Src/main.c **** 
 1965              		.loc 1 188 1 view .LVU547
 1966 0104 3DB0     		add	sp, sp, #244
 1967              	.LCFI32:
 1968              		.cfi_def_cfa_offset 20
 1969              		@ sp needed
 1970 0106 F0BD     		pop	{r4, r5, r6, r7, pc}
 188:Core/Src/main.c **** 
 1971              		.loc 1 188 1 view .LVU548
 1972              		.cfi_endproc
 1973              	.LFE70:
 1975              		.section	.text.lorawan_compute_mic,"ax",%progbits
 1976              		.align	1
 1977              		.syntax unified
 1978              		.thumb
 1979              		.thumb_func
 1980              		.fpu softvfp
 1982              	lorawan_compute_mic:
 1983              	.LVL156:
 1984              	.LFB72:
 223:Core/Src/main.c ****     uint8_t buf[64];
 1985              		.loc 1 223 1 is_stmt 1 view -0
 1986              		.cfi_startproc
 1987              		@ args = 8, pretend = 0, frame = 96
 1988              		@ frame_needed = 0, uses_anonymous_args = 0
 223:Core/Src/main.c ****     uint8_t buf[64];
 1989              		.loc 1 223 1 is_stmt 0 view .LVU550
 1990 0000 70B5     		push	{r4, r5, r6, lr}
 1991              	.LCFI33:
 1992              		.cfi_def_cfa_offset 16
 1993              		.cfi_offset 4, -16
 1994              		.cfi_offset 5, -12
 1995              		.cfi_offset 6, -8
 1996              		.cfi_offset 14, -4
 1997 0002 98B0     		sub	sp, sp, #96
 1998              	.LCFI34:
 1999              		.cfi_def_cfa_offset 112
 2000 0004 8646     		mov	lr, r0
ARM GAS  /tmp/ccxe0c4o.s 			page 49


 2001 0006 0D46     		mov	r5, r1
 2002 0008 1646     		mov	r6, r2
 2003 000a 1C9C     		ldr	r4, [sp, #112]
 224:Core/Src/main.c ****     /* блок B0 */
 2004              		.loc 1 224 5 is_stmt 1 view .LVU551
 226:Core/Src/main.c ****                     devaddr_le[0],devaddr_le[1],devaddr_le[2],devaddr_le[3],
 2005              		.loc 1 226 5 view .LVU552
 226:Core/Src/main.c ****                     devaddr_le[0],devaddr_le[1],devaddr_le[2],devaddr_le[3],
 2006              		.loc 1 226 13 is_stmt 0 view .LVU553
 2007 000c 4922     		movs	r2, #73
 2008              	.LVL157:
 226:Core/Src/main.c ****                     devaddr_le[0],devaddr_le[1],devaddr_le[2],devaddr_le[3],
 2009              		.loc 1 226 13 view .LVU554
 2010 000e 8DF81020 		strb	r2, [sp, #16]
 2011 0012 4FF0000C 		mov	ip, #0
 2012 0016 8DF811C0 		strb	ip, [sp, #17]
 2013 001a 8DF812C0 		strb	ip, [sp, #18]
 2014 001e 8DF813C0 		strb	ip, [sp, #19]
 2015 0022 8DF814C0 		strb	ip, [sp, #20]
 2016 0026 8DF815C0 		strb	ip, [sp, #21]
 227:Core/Src/main.c ****                     (uint8_t)(fcnt&0xFF),(uint8_t)((fcnt>>8)&0xFF),
 2017              		.loc 1 227 31 view .LVU555
 2018 002a 1A78     		ldrb	r2, [r3]	@ zero_extendqisi2
 226:Core/Src/main.c ****                     devaddr_le[0],devaddr_le[1],devaddr_le[2],devaddr_le[3],
 2019              		.loc 1 226 13 view .LVU556
 2020 002c 8DF81620 		strb	r2, [sp, #22]
 2021 0030 5A78     		ldrb	r2, [r3, #1]	@ zero_extendqisi2
 2022 0032 8DF81720 		strb	r2, [sp, #23]
 2023 0036 9A78     		ldrb	r2, [r3, #2]	@ zero_extendqisi2
 2024 0038 8DF81820 		strb	r2, [sp, #24]
 2025 003c DB78     		ldrb	r3, [r3, #3]	@ zero_extendqisi2
 2026              	.LVL158:
 226:Core/Src/main.c ****                     devaddr_le[0],devaddr_le[1],devaddr_le[2],devaddr_le[3],
 2027              		.loc 1 226 13 view .LVU557
 2028 003e 8DF81930 		strb	r3, [sp, #25]
 2029 0042 8DF81A40 		strb	r4, [sp, #26]
 228:Core/Src/main.c ****                     (uint8_t)((fcnt>>16)&0xFF),(uint8_t)((fcnt>>24)&0xFF),
 2030              		.loc 1 228 42 view .LVU558
 2031 0046 C4F30723 		ubfx	r3, r4, #8, #8
 226:Core/Src/main.c ****                     devaddr_le[0],devaddr_le[1],devaddr_le[2],devaddr_le[3],
 2032              		.loc 1 226 13 view .LVU559
 2033 004a 8DF81B30 		strb	r3, [sp, #27]
 229:Core/Src/main.c ****                     0x00,(uint8_t)len};
 2034              		.loc 1 229 21 view .LVU560
 2035 004e C4F30743 		ubfx	r3, r4, #16, #8
 226:Core/Src/main.c ****                     devaddr_le[0],devaddr_le[1],devaddr_le[2],devaddr_le[3],
 2036              		.loc 1 226 13 view .LVU561
 2037 0052 8DF81C30 		strb	r3, [sp, #28]
 229:Core/Src/main.c ****                     0x00,(uint8_t)len};
 2038              		.loc 1 229 48 view .LVU562
 2039 0056 240E     		lsrs	r4, r4, #24
 226:Core/Src/main.c ****                     devaddr_le[0],devaddr_le[1],devaddr_le[2],devaddr_le[3],
 2040              		.loc 1 226 13 view .LVU563
 2041 0058 8DF81D40 		strb	r4, [sp, #29]
 2042 005c 8DF81EC0 		strb	ip, [sp, #30]
 2043 0060 8DF81F10 		strb	r1, [sp, #31]
 231:Core/Src/main.c ****     memcpy(buf+16,msg,len);
ARM GAS  /tmp/ccxe0c4o.s 			page 50


 2044              		.loc 1 231 5 is_stmt 1 view .LVU564
 2045 0064 08AC     		add	r4, sp, #32
 2046 0066 04AB     		add	r3, sp, #16
 2047 0068 0FCB     		ldm	r3, {r0, r1, r2, r3}
 2048              	.LVL159:
 231:Core/Src/main.c ****     memcpy(buf+16,msg,len);
 2049              		.loc 1 231 5 is_stmt 0 view .LVU565
 2050 006a 84E80F00 		stm	r4, {r0, r1, r2, r3}
 232:Core/Src/main.c ****     uint8_t full[16];
 2051              		.loc 1 232 5 is_stmt 1 view .LVU566
 2052 006e 2A46     		mov	r2, r5
 2053 0070 7146     		mov	r1, lr
 2054 0072 0CA8     		add	r0, sp, #48
 2055 0074 FFF7FEFF 		bl	memcpy
 2056              	.LVL160:
 233:Core/Src/main.c ****     aes_cmac(nwkskey, buf, 16+len, full);
 2057              		.loc 1 233 5 view .LVU567
 234:Core/Src/main.c ****     memcpy(mic,full,4);
 2058              		.loc 1 234 5 view .LVU568
 2059 0078 6B46     		mov	r3, sp
 2060 007a 05F11002 		add	r2, r5, #16
 2061 007e 2146     		mov	r1, r4
 2062 0080 3046     		mov	r0, r6
 2063 0082 FFF7FEFF 		bl	aes_cmac
 2064              	.LVL161:
 235:Core/Src/main.c **** }
 2065              		.loc 1 235 5 view .LVU569
 2066 0086 009A     		ldr	r2, [sp]
 2067 0088 1D9B     		ldr	r3, [sp, #116]
 2068 008a 1A60     		str	r2, [r3]	@ unaligned
 236:Core/Src/main.c **** 
 2069              		.loc 1 236 1 is_stmt 0 view .LVU570
 2070 008c 18B0     		add	sp, sp, #96
 2071              	.LCFI35:
 2072              		.cfi_def_cfa_offset 16
 2073              		@ sp needed
 2074 008e 70BD     		pop	{r4, r5, r6, pc}
 236:Core/Src/main.c **** 
 2075              		.loc 1 236 1 view .LVU571
 2076              		.cfi_endproc
 2077              	.LFE72:
 2079              		.section	.text.lorawan_build_uplink,"ax",%progbits
 2080              		.align	1
 2081              		.syntax unified
 2082              		.thumb
 2083              		.thumb_func
 2084              		.fpu softvfp
 2086              	lorawan_build_uplink:
 2087              	.LVL162:
 2088              	.LFB73:
 241:Core/Src/main.c ****     uint8_t devaddr_le[4]={DEVADDR[3],DEVADDR[2],DEVADDR[1],DEVADDR[0]};
 2089              		.loc 1 241 1 is_stmt 1 view -0
 2090              		.cfi_startproc
 2091              		@ args = 4, pretend = 0, frame = 40
 2092              		@ frame_needed = 0, uses_anonymous_args = 0
 241:Core/Src/main.c ****     uint8_t devaddr_le[4]={DEVADDR[3],DEVADDR[2],DEVADDR[1],DEVADDR[0]};
 2093              		.loc 1 241 1 is_stmt 0 view .LVU573
ARM GAS  /tmp/ccxe0c4o.s 			page 51


 2094 0000 2DE9F041 		push	{r4, r5, r6, r7, r8, lr}
 2095              	.LCFI36:
 2096              		.cfi_def_cfa_offset 24
 2097              		.cfi_offset 4, -24
 2098              		.cfi_offset 5, -20
 2099              		.cfi_offset 6, -16
 2100              		.cfi_offset 7, -12
 2101              		.cfi_offset 8, -8
 2102              		.cfi_offset 14, -4
 2103 0004 8CB0     		sub	sp, sp, #48
 2104              	.LCFI37:
 2105              		.cfi_def_cfa_offset 72
 2106 0006 0446     		mov	r4, r0
 2107 0008 1546     		mov	r5, r2
 2108 000a 129E     		ldr	r6, [sp, #72]
 242:Core/Src/main.c ****     int p=0;
 2109              		.loc 1 242 5 is_stmt 1 view .LVU574
 242:Core/Src/main.c ****     int p=0;
 2110              		.loc 1 242 13 is_stmt 0 view .LVU575
 2111 000c 4FF0530E 		mov	lr, #83
 2112 0010 8DF82CE0 		strb	lr, [sp, #44]
 2113 0014 4FF06B0C 		mov	ip, #107
 2114 0018 8DF82DC0 		strb	ip, [sp, #45]
 2115 001c 8827     		movs	r7, #136
 2116 001e 8DF82E70 		strb	r7, [sp, #46]
 2117 0022 0020     		movs	r0, #0
 2118              	.LVL163:
 242:Core/Src/main.c ****     int p=0;
 2119              		.loc 1 242 13 view .LVU576
 2120 0024 8DF82F00 		strb	r0, [sp, #47]
 243:Core/Src/main.c ****     out[p++]=0x40;                 /* MHDR: unconfirmed data up */
 2121              		.loc 1 243 5 is_stmt 1 view .LVU577
 2122              	.LVL164:
 244:Core/Src/main.c ****     out[p++]=devaddr_le[0];        /* DevAddr little-endian */
 2123              		.loc 1 244 5 view .LVU578
 244:Core/Src/main.c ****     out[p++]=devaddr_le[0];        /* DevAddr little-endian */
 2124              		.loc 1 244 13 is_stmt 0 view .LVU579
 2125 0028 4FF04008 		mov	r8, #64
 2126 002c 84F80080 		strb	r8, [r4]
 245:Core/Src/main.c ****     out[p++]=devaddr_le[1];
 2127              		.loc 1 245 5 is_stmt 1 view .LVU580
 2128              	.LVL165:
 245:Core/Src/main.c ****     out[p++]=devaddr_le[1];
 2129              		.loc 1 245 13 is_stmt 0 view .LVU581
 2130 0030 84F801E0 		strb	lr, [r4, #1]
 246:Core/Src/main.c ****     out[p++]=devaddr_le[2];
 2131              		.loc 1 246 5 is_stmt 1 view .LVU582
 2132              	.LVL166:
 246:Core/Src/main.c ****     out[p++]=devaddr_le[2];
 2133              		.loc 1 246 13 is_stmt 0 view .LVU583
 2134 0034 84F802C0 		strb	ip, [r4, #2]
 247:Core/Src/main.c ****     out[p++]=devaddr_le[3];
 2135              		.loc 1 247 5 is_stmt 1 view .LVU584
 2136              	.LVL167:
 247:Core/Src/main.c ****     out[p++]=devaddr_le[3];
 2137              		.loc 1 247 13 is_stmt 0 view .LVU585
 2138 0038 E770     		strb	r7, [r4, #3]
ARM GAS  /tmp/ccxe0c4o.s 			page 52


 248:Core/Src/main.c ****     out[p++]=0x00;                 /* FCtrl */
 2139              		.loc 1 248 5 is_stmt 1 view .LVU586
 2140              	.LVL168:
 248:Core/Src/main.c ****     out[p++]=0x00;                 /* FCtrl */
 2141              		.loc 1 248 13 is_stmt 0 view .LVU587
 2142 003a 2071     		strb	r0, [r4, #4]
 249:Core/Src/main.c ****     out[p++]=(uint8_t)(fcnt&0xFF); /* FCnt little-endian */
 2143              		.loc 1 249 5 is_stmt 1 view .LVU588
 2144              	.LVL169:
 249:Core/Src/main.c ****     out[p++]=(uint8_t)(fcnt&0xFF); /* FCnt little-endian */
 2145              		.loc 1 249 13 is_stmt 0 view .LVU589
 2146 003c 6071     		strb	r0, [r4, #5]
 250:Core/Src/main.c ****     out[p++]=(uint8_t)((fcnt>>8)&0xFF);
 2147              		.loc 1 250 5 is_stmt 1 view .LVU590
 2148              	.LVL170:
 250:Core/Src/main.c ****     out[p++]=(uint8_t)((fcnt>>8)&0xFF);
 2149              		.loc 1 250 13 is_stmt 0 view .LVU591
 2150 003e A671     		strb	r6, [r4, #6]
 251:Core/Src/main.c ****     out[p++]=fport;                /* FPort */
 2151              		.loc 1 251 5 is_stmt 1 view .LVU592
 2152              	.LVL171:
 251:Core/Src/main.c ****     out[p++]=fport;                /* FPort */
 2153              		.loc 1 251 14 is_stmt 0 view .LVU593
 2154 0040 C6F30720 		ubfx	r0, r6, #8, #8
 251:Core/Src/main.c ****     out[p++]=fport;                /* FPort */
 2155              		.loc 1 251 13 view .LVU594
 2156 0044 E071     		strb	r0, [r4, #7]
 252:Core/Src/main.c **** 
 2157              		.loc 1 252 5 is_stmt 1 view .LVU595
 2158              	.LVL172:
 252:Core/Src/main.c **** 
 2159              		.loc 1 252 13 is_stmt 0 view .LVU596
 2160 0046 2372     		strb	r3, [r4, #8]
 255:Core/Src/main.c ****     memcpy(enc, app_payload, app_len);
 2161              		.loc 1 255 5 is_stmt 1 view .LVU597
 256:Core/Src/main.c ****     lorawan_encrypt_payload(enc, app_len, APPSKEY, devaddr_le, fcnt);
 2162              		.loc 1 256 5 view .LVU598
 2163 0048 03A8     		add	r0, sp, #12
 2164 004a FFF7FEFF 		bl	memcpy
 2165              	.LVL173:
 257:Core/Src/main.c ****     memcpy(out+p, enc, app_len);
 2166              		.loc 1 257 5 view .LVU599
 2167 004e 0096     		str	r6, [sp]
 2168 0050 0BAB     		add	r3, sp, #44
 2169 0052 0E4A     		ldr	r2, .L104
 2170 0054 2946     		mov	r1, r5
 2171 0056 03A8     		add	r0, sp, #12
 2172 0058 FFF7FEFF 		bl	lorawan_encrypt_payload
 2173              	.LVL174:
 258:Core/Src/main.c ****     p+=app_len;
 2174              		.loc 1 258 5 view .LVU600
 2175 005c 2A46     		mov	r2, r5
 2176 005e 03A9     		add	r1, sp, #12
 2177 0060 04F10900 		add	r0, r4, #9
 2178 0064 FFF7FEFF 		bl	memcpy
 2179              	.LVL175:
 259:Core/Src/main.c **** 
ARM GAS  /tmp/ccxe0c4o.s 			page 53


 2180              		.loc 1 259 5 view .LVU601
 259:Core/Src/main.c **** 
 2181              		.loc 1 259 6 is_stmt 0 view .LVU602
 2182 0068 05F10907 		add	r7, r5, #9
 2183              	.LVL176:
 262:Core/Src/main.c ****     lorawan_compute_mic(out, p, NWKSKEY, devaddr_le, fcnt, mic);
 2184              		.loc 1 262 5 is_stmt 1 view .LVU603
 263:Core/Src/main.c ****     memcpy(out+p, mic, 4);
 2185              		.loc 1 263 5 view .LVU604
 2186 006c 02AB     		add	r3, sp, #8
 2187 006e 0193     		str	r3, [sp, #4]
 2188 0070 0096     		str	r6, [sp]
 2189 0072 0BAB     		add	r3, sp, #44
 2190 0074 064A     		ldr	r2, .L104+4
 2191 0076 3946     		mov	r1, r7
 2192 0078 2046     		mov	r0, r4
 2193 007a FFF7FEFF 		bl	lorawan_compute_mic
 2194              	.LVL177:
 264:Core/Src/main.c ****     p+=4;
 2195              		.loc 1 264 5 view .LVU605
 2196 007e 029B     		ldr	r3, [sp, #8]
 2197 0080 E351     		str	r3, [r4, r7]	@ unaligned
 265:Core/Src/main.c **** 
 2198              		.loc 1 265 5 view .LVU606
 2199              	.LVL178:
 267:Core/Src/main.c **** }
 2200              		.loc 1 267 5 view .LVU607
 268:Core/Src/main.c **** /* USER CODE END AES */
 2201              		.loc 1 268 1 is_stmt 0 view .LVU608
 2202 0082 05F10D00 		add	r0, r5, #13
 2203              	.LVL179:
 268:Core/Src/main.c **** /* USER CODE END AES */
 2204              		.loc 1 268 1 view .LVU609
 2205 0086 0CB0     		add	sp, sp, #48
 2206              	.LCFI38:
 2207              		.cfi_def_cfa_offset 24
 2208              		@ sp needed
 2209 0088 BDE8F081 		pop	{r4, r5, r6, r7, r8, pc}
 2210              	.LVL180:
 2211              	.L105:
 268:Core/Src/main.c **** /* USER CODE END AES */
 2212              		.loc 1 268 1 view .LVU610
 2213              		.align	2
 2214              	.L104:
 2215 008c 00000000 		.word	.LANCHOR4
 2216 0090 00000000 		.word	.LANCHOR5
 2217              		.cfi_endproc
 2218              	.LFE73:
 2220              		.section	.rodata.sx_send_packet.str1.4,"aMS",%progbits,1
 2221              		.align	2
 2222              	.LC7:
 2223 0000 02FFFF00 		.ascii	"\002\377\377\000"
 2224              		.section	.text.sx_send_packet,"ax",%progbits
 2225              		.align	1
 2226              		.syntax unified
 2227              		.thumb
 2228              		.thumb_func
ARM GAS  /tmp/ccxe0c4o.s 			page 54


 2229              		.fpu softvfp
 2231              	sx_send_packet:
 2232              	.LFB80:
 338:Core/Src/main.c ****     uint8_t rx[10] = {0};
 2233              		.loc 1 338 1 is_stmt 1 view -0
 2234              		.cfi_startproc
 2235              		@ args = 0, pretend = 0, frame = 64
 2236              		@ frame_needed = 0, uses_anonymous_args = 0
 2237 0000 2DE9F043 		push	{r4, r5, r6, r7, r8, r9, lr}
 2238              	.LCFI39:
 2239              		.cfi_def_cfa_offset 28
 2240              		.cfi_offset 4, -28
 2241              		.cfi_offset 5, -24
 2242              		.cfi_offset 6, -20
 2243              		.cfi_offset 7, -16
 2244              		.cfi_offset 8, -12
 2245              		.cfi_offset 9, -8
 2246              		.cfi_offset 14, -4
 2247 0004 93B0     		sub	sp, sp, #76
 2248              	.LCFI40:
 2249              		.cfi_def_cfa_offset 104
 339:Core/Src/main.c **** 
 2250              		.loc 1 339 5 view .LVU612
 339:Core/Src/main.c **** 
 2251              		.loc 1 339 13 is_stmt 0 view .LVU613
 2252 0006 0024     		movs	r4, #0
 2253 0008 0F94     		str	r4, [sp, #60]
 2254 000a 1094     		str	r4, [sp, #64]
 2255 000c ADF84440 		strh	r4, [sp, #68]	@ movhi
 342:Core/Src/main.c ****     uint8_t frame[32];
 2256              		.loc 1 342 5 is_stmt 1 view .LVU614
 342:Core/Src/main.c ****     uint8_t frame[32];
 2257              		.loc 1 342 13 is_stmt 0 view .LVU615
 2258 0010 44F64813 		movw	r3, #18760
 2259 0014 ADF83830 		strh	r3, [sp, #56]	@ movhi
 343:Core/Src/main.c ****     int flen = lorawan_build_uplink(frame, app, 2, 0x01, fcnt_up);
 2260              		.loc 1 343 5 is_stmt 1 view .LVU616
 344:Core/Src/main.c **** 
 2261              		.loc 1 344 5 view .LVU617
 344:Core/Src/main.c **** 
 2262              		.loc 1 344 16 is_stmt 0 view .LVU618
 2263 0018 524E     		ldr	r6, .L108
 2264 001a 3368     		ldr	r3, [r6]
 2265 001c 0093     		str	r3, [sp]
 2266 001e 0123     		movs	r3, #1
 2267 0020 0222     		movs	r2, #2
 2268 0022 0EA9     		add	r1, sp, #56
 2269 0024 06A8     		add	r0, sp, #24
 2270 0026 FFF7FEFF 		bl	lorawan_build_uplink
 2271              	.LVL181:
 2272 002a 0746     		mov	r7, r0
 2273              	.LVL182:
 2274              	.LBB57:
 346:Core/Src/main.c ****     { uint8_t t[3]={0x8F,0x00,0x00}; sx_cmd(t,rx,3); HAL_Delay(5); }
 2275              		.loc 1 346 7 is_stmt 1 view .LVU619
 346:Core/Src/main.c ****     { uint8_t t[3]={0x8F,0x00,0x00}; sx_cmd(t,rx,3); HAL_Delay(5); }
 2276              		.loc 1 346 15 is_stmt 0 view .LVU620
ARM GAS  /tmp/ccxe0c4o.s 			page 55


 2277 002c 8023     		movs	r3, #128
 2278 002e ADF81030 		strh	r3, [sp, #16]	@ movhi
 346:Core/Src/main.c ****     { uint8_t t[3]={0x8F,0x00,0x00}; sx_cmd(t,rx,3); HAL_Delay(5); }
 2279              		.loc 1 346 33 is_stmt 1 view .LVU621
 2280 0032 0222     		movs	r2, #2
 2281 0034 0FA9     		add	r1, sp, #60
 2282 0036 04A8     		add	r0, sp, #16
 2283              	.LVL183:
 346:Core/Src/main.c ****     { uint8_t t[3]={0x8F,0x00,0x00}; sx_cmd(t,rx,3); HAL_Delay(5); }
 2284              		.loc 1 346 33 is_stmt 0 view .LVU622
 2285 0038 FFF7FEFF 		bl	sx_cmd
 2286              	.LVL184:
 346:Core/Src/main.c ****     { uint8_t t[3]={0x8F,0x00,0x00}; sx_cmd(t,rx,3); HAL_Delay(5); }
 2287              		.loc 1 346 49 is_stmt 1 view .LVU623
 2288 003c 0520     		movs	r0, #5
 2289 003e FFF7FEFF 		bl	HAL_Delay
 2290              	.LVL185:
 2291              	.LBE57:
 2292              	.LBB58:
 347:Core/Src/main.c ****     /* packet params: preamble 8, explicit, payload=flen, CRC on, IQ std */
 2293              		.loc 1 347 7 view .LVU624
 347:Core/Src/main.c ****     /* packet params: preamble 8, explicit, payload=flen, CRC on, IQ std */
 2294              		.loc 1 347 15 is_stmt 0 view .LVU625
 2295 0042 494B     		ldr	r3, .L108+4
 2296 0044 9B68     		ldr	r3, [r3, #8]
 2297 0046 ADF81030 		strh	r3, [sp, #16]	@ movhi
 2298 004a 1B0C     		lsrs	r3, r3, #16
 2299 004c 8DF81230 		strb	r3, [sp, #18]
 347:Core/Src/main.c ****     /* packet params: preamble 8, explicit, payload=flen, CRC on, IQ std */
 2300              		.loc 1 347 38 is_stmt 1 view .LVU626
 2301 0050 0322     		movs	r2, #3
 2302 0052 0FA9     		add	r1, sp, #60
 2303 0054 04A8     		add	r0, sp, #16
 2304 0056 FFF7FEFF 		bl	sx_cmd
 2305              	.LVL186:
 347:Core/Src/main.c ****     /* packet params: preamble 8, explicit, payload=flen, CRC on, IQ std */
 2306              		.loc 1 347 54 view .LVU627
 2307 005a 0520     		movs	r0, #5
 2308 005c FFF7FEFF 		bl	HAL_Delay
 2309              	.LVL187:
 2310              	.LBE58:
 2311              	.LBB59:
 349:Core/Src/main.c ****     {
 2312              		.loc 1 349 7 view .LVU628
 349:Core/Src/main.c ****     {
 2313              		.loc 1 349 15 is_stmt 0 view .LVU629
 2314 0060 8C23     		movs	r3, #140
 2315 0062 8DF81030 		strb	r3, [sp, #16]
 2316 0066 8DF81140 		strb	r4, [sp, #17]
 2317 006a 0823     		movs	r3, #8
 2318 006c 8DF81230 		strb	r3, [sp, #18]
 2319 0070 8DF81340 		strb	r4, [sp, #19]
 2320 0074 8DF81470 		strb	r7, [sp, #20]
 2321 0078 0125     		movs	r5, #1
 2322 007a 8DF81550 		strb	r5, [sp, #21]
 2323 007e 8DF81640 		strb	r4, [sp, #22]
 349:Core/Src/main.c ****     {
ARM GAS  /tmp/ccxe0c4o.s 			page 56


 2324              		.loc 1 349 67 is_stmt 1 view .LVU630
 2325 0082 0722     		movs	r2, #7
 2326 0084 0FA9     		add	r1, sp, #60
 2327 0086 04A8     		add	r0, sp, #16
 2328 0088 FFF7FEFF 		bl	sx_cmd
 2329              	.LVL188:
 349:Core/Src/main.c ****     {
 2330              		.loc 1 349 83 view .LVU631
 2331 008c 0520     		movs	r0, #5
 2332 008e FFF7FEFF 		bl	HAL_Delay
 2333              	.LVL189:
 2334              	.LBE59:
 2335              	.LBB60:
 351:Core/Src/main.c ****         busy();
 2336              		.loc 1 351 9 view .LVU632
 351:Core/Src/main.c ****         busy();
 2337              		.loc 1 351 17 is_stmt 0 view .LVU633
 2338 0092 0E23     		movs	r3, #14
 2339 0094 8DF80C30 		strb	r3, [sp, #12]
 351:Core/Src/main.c ****         busy();
 2340              		.loc 1 351 31 is_stmt 1 view .LVU634
 351:Core/Src/main.c ****         busy();
 2341              		.loc 1 351 39 is_stmt 0 view .LVU635
 2342 0098 8DF81040 		strb	r4, [sp, #16]
 352:Core/Src/main.c ****         HAL_GPIO_WritePin(NSS_GPIO_Port, NSS_Pin, GPIO_PIN_RESET);
 2343              		.loc 1 352 9 is_stmt 1 view .LVU636
 2344 009c FFF7FEFF 		bl	busy
 2345              	.LVL190:
 353:Core/Src/main.c ****         HAL_SPI_Transmit(&hspi1, wr,   1, 100);     /* WriteBuffer opcode */
 2346              		.loc 1 353 9 view .LVU637
 2347 00a0 DFF8C890 		ldr	r9, .L108+8
 2348 00a4 2246     		mov	r2, r4
 2349 00a6 1021     		movs	r1, #16
 2350 00a8 4846     		mov	r0, r9
 2351 00aa FFF7FEFF 		bl	HAL_GPIO_WritePin
 2352              	.LVL191:
 354:Core/Src/main.c ****         HAL_SPI_Transmit(&hspi1, addr, 1, 100);     /* offset 0 */
 2353              		.loc 1 354 9 view .LVU638
 2354 00ae DFF8C080 		ldr	r8, .L108+12
 2355 00b2 6423     		movs	r3, #100
 2356 00b4 2A46     		mov	r2, r5
 2357 00b6 03A9     		add	r1, sp, #12
 2358 00b8 4046     		mov	r0, r8
 2359 00ba FFF7FEFF 		bl	HAL_SPI_Transmit
 2360              	.LVL192:
 355:Core/Src/main.c ****         HAL_SPI_Transmit(&hspi1, frame, flen, 100); /* сам кадр */
 2361              		.loc 1 355 9 view .LVU639
 2362 00be 6423     		movs	r3, #100
 2363 00c0 2A46     		mov	r2, r5
 2364 00c2 04A9     		add	r1, sp, #16
 2365 00c4 4046     		mov	r0, r8
 2366 00c6 FFF7FEFF 		bl	HAL_SPI_Transmit
 2367              	.LVL193:
 356:Core/Src/main.c ****         HAL_GPIO_WritePin(NSS_GPIO_Port, NSS_Pin, GPIO_PIN_SET);
 2368              		.loc 1 356 9 view .LVU640
 2369 00ca 6423     		movs	r3, #100
 2370 00cc BAB2     		uxth	r2, r7
ARM GAS  /tmp/ccxe0c4o.s 			page 57


 2371 00ce 06A9     		add	r1, sp, #24
 2372 00d0 4046     		mov	r0, r8
 2373 00d2 FFF7FEFF 		bl	HAL_SPI_Transmit
 2374              	.LVL194:
 357:Core/Src/main.c ****         HAL_Delay(5);
 2375              		.loc 1 357 9 view .LVU641
 2376 00d6 2A46     		mov	r2, r5
 2377 00d8 1021     		movs	r1, #16
 2378 00da 4846     		mov	r0, r9
 2379 00dc FFF7FEFF 		bl	HAL_GPIO_WritePin
 2380              	.LVL195:
 358:Core/Src/main.c ****     }
 2381              		.loc 1 358 9 view .LVU642
 2382 00e0 0520     		movs	r0, #5
 2383 00e2 FFF7FEFF 		bl	HAL_Delay
 2384              	.LVL196:
 2385              	.LBE60:
 2386              	.LBB61:
 360:Core/Src/main.c ****     { uint8_t t[4]={0x83,0x00,0x00,0x00}; sx_cmd(t,rx,4); }
 2387              		.loc 1 360 7 view .LVU643
 360:Core/Src/main.c ****     { uint8_t t[4]={0x83,0x00,0x00,0x00}; sx_cmd(t,rx,4); }
 2388              		.loc 1 360 15 is_stmt 0 view .LVU644
 2389 00e6 234B     		ldr	r3, .L108+16
 2390 00e8 1B68     		ldr	r3, [r3]
 2391 00ea ADF81030 		strh	r3, [sp, #16]	@ movhi
 2392 00ee 1B0C     		lsrs	r3, r3, #16
 2393 00f0 8DF81230 		strb	r3, [sp, #18]
 360:Core/Src/main.c ****     { uint8_t t[4]={0x83,0x00,0x00,0x00}; sx_cmd(t,rx,4); }
 2394              		.loc 1 360 38 is_stmt 1 view .LVU645
 2395 00f4 0322     		movs	r2, #3
 2396 00f6 0FA9     		add	r1, sp, #60
 2397 00f8 04A8     		add	r0, sp, #16
 2398 00fa FFF7FEFF 		bl	sx_cmd
 2399              	.LVL197:
 360:Core/Src/main.c ****     { uint8_t t[4]={0x83,0x00,0x00,0x00}; sx_cmd(t,rx,4); }
 2400              		.loc 1 360 54 view .LVU646
 2401 00fe 0520     		movs	r0, #5
 2402 0100 FFF7FEFF 		bl	HAL_Delay
 2403              	.LVL198:
 2404              	.LBE61:
 2405              	.LBB62:
 361:Core/Src/main.c ****     HAL_Delay(2);
 2406              		.loc 1 361 7 view .LVU647
 361:Core/Src/main.c ****     HAL_Delay(2);
 2407              		.loc 1 361 15 is_stmt 0 view .LVU648
 2408 0104 8323     		movs	r3, #131
 2409 0106 0493     		str	r3, [sp, #16]
 361:Core/Src/main.c ****     HAL_Delay(2);
 2410              		.loc 1 361 43 is_stmt 1 view .LVU649
 2411 0108 0422     		movs	r2, #4
 2412 010a 0FA9     		add	r1, sp, #60
 2413 010c 04A8     		add	r0, sp, #16
 2414 010e FFF7FEFF 		bl	sx_cmd
 2415              	.LVL199:
 2416              	.LBE62:
 362:Core/Src/main.c ****     mode_after_tx = sx_chipmode();
 2417              		.loc 1 362 5 view .LVU650
ARM GAS  /tmp/ccxe0c4o.s 			page 58


 2418 0112 0220     		movs	r0, #2
 2419 0114 FFF7FEFF 		bl	HAL_Delay
 2420              	.LVL200:
 363:Core/Src/main.c ****     tx_reached = (mode_after_tx == 0x06) ? 1 : 0;
 2421              		.loc 1 363 5 view .LVU651
 363:Core/Src/main.c ****     tx_reached = (mode_after_tx == 0x06) ? 1 : 0;
 2422              		.loc 1 363 21 is_stmt 0 view .LVU652
 2423 0118 FFF7FEFF 		bl	sx_chipmode
 2424              	.LVL201:
 363:Core/Src/main.c ****     tx_reached = (mode_after_tx == 0x06) ? 1 : 0;
 2425              		.loc 1 363 19 view .LVU653
 2426 011c 164B     		ldr	r3, .L108+20
 2427 011e 1870     		strb	r0, [r3]
 364:Core/Src/main.c ****     HAL_Delay(2000);
 2428              		.loc 1 364 5 is_stmt 1 view .LVU654
 364:Core/Src/main.c ****     HAL_Delay(2000);
 2429              		.loc 1 364 46 is_stmt 0 view .LVU655
 2430 0120 1B78     		ldrb	r3, [r3]	@ zero_extendqisi2
 2431 0122 DBB2     		uxtb	r3, r3
 2432 0124 062B     		cmp	r3, #6
 2433 0126 14BF     		ite	ne
 2434 0128 0023     		movne	r3, #0
 2435 012a 0123     		moveq	r3, #1
 364:Core/Src/main.c ****     HAL_Delay(2000);
 2436              		.loc 1 364 16 view .LVU656
 2437 012c 134A     		ldr	r2, .L108+24
 2438 012e 1370     		strb	r3, [r2]
 365:Core/Src/main.c ****     { uint8_t t[4]={0x17,0x00,0x00,0x00}; uint8_t r[4]={0};
 2439              		.loc 1 365 5 is_stmt 1 view .LVU657
 2440 0130 4FF4FA60 		mov	r0, #2000
 2441 0134 FFF7FEFF 		bl	HAL_Delay
 2442              	.LVL202:
 2443              	.LBB63:
 366:Core/Src/main.c ****       sx_cmd(t,r,4); err_lsb = r[3]; }
 2444              		.loc 1 366 7 view .LVU658
 366:Core/Src/main.c ****       sx_cmd(t,r,4); err_lsb = r[3]; }
 2445              		.loc 1 366 15 is_stmt 0 view .LVU659
 2446 0138 1723     		movs	r3, #23
 2447 013a 0393     		str	r3, [sp, #12]
 366:Core/Src/main.c ****       sx_cmd(t,r,4); err_lsb = r[3]; }
 2448              		.loc 1 366 43 is_stmt 1 view .LVU660
 366:Core/Src/main.c ****       sx_cmd(t,r,4); err_lsb = r[3]; }
 2449              		.loc 1 366 51 is_stmt 0 view .LVU661
 2450 013c 0494     		str	r4, [sp, #16]
 367:Core/Src/main.c **** 
 2451              		.loc 1 367 7 is_stmt 1 view .LVU662
 2452 013e 0422     		movs	r2, #4
 2453 0140 04A9     		add	r1, sp, #16
 2454 0142 03A8     		add	r0, sp, #12
 2455 0144 FFF7FEFF 		bl	sx_cmd
 2456              	.LVL203:
 367:Core/Src/main.c **** 
 2457              		.loc 1 367 22 view .LVU663
 367:Core/Src/main.c **** 
 2458              		.loc 1 367 33 is_stmt 0 view .LVU664
 2459 0148 9DF81320 		ldrb	r2, [sp, #19]	@ zero_extendqisi2
 367:Core/Src/main.c **** 
ARM GAS  /tmp/ccxe0c4o.s 			page 59


 2460              		.loc 1 367 30 view .LVU665
 2461 014c 0C4B     		ldr	r3, .L108+28
 2462 014e 1A70     		strb	r2, [r3]
 2463              	.LBE63:
 369:Core/Src/main.c ****     tx_count++;
 2464              		.loc 1 369 5 is_stmt 1 view .LVU666
 369:Core/Src/main.c ****     tx_count++;
 2465              		.loc 1 369 12 is_stmt 0 view .LVU667
 2466 0150 3368     		ldr	r3, [r6]
 2467 0152 2B44     		add	r3, r3, r5
 2468 0154 3360     		str	r3, [r6]
 370:Core/Src/main.c **** }
 2469              		.loc 1 370 5 is_stmt 1 view .LVU668
 370:Core/Src/main.c **** }
 2470              		.loc 1 370 13 is_stmt 0 view .LVU669
 2471 0156 0B4A     		ldr	r2, .L108+32
 2472 0158 1368     		ldr	r3, [r2]
 2473 015a 2B44     		add	r3, r3, r5
 2474 015c 1360     		str	r3, [r2]
 371:Core/Src/main.c **** /* USER CODE END 0 */
 2475              		.loc 1 371 1 view .LVU670
 2476 015e 13B0     		add	sp, sp, #76
 2477              	.LCFI41:
 2478              		.cfi_def_cfa_offset 28
 2479              		@ sp needed
 2480 0160 BDE8F083 		pop	{r4, r5, r6, r7, r8, r9, pc}
 2481              	.LVL204:
 2482              	.L109:
 371:Core/Src/main.c **** /* USER CODE END 0 */
 2483              		.loc 1 371 1 view .LVU671
 2484              		.align	2
 2485              	.L108:
 2486 0164 00000000 		.word	.LANCHOR6
 2487 0168 00000000 		.word	.LANCHOR2
 2488 016c 00080140 		.word	1073809408
 2489 0170 00000000 		.word	.LANCHOR1
 2490 0174 00000000 		.word	.LC7
 2491 0178 00000000 		.word	.LANCHOR7
 2492 017c 00000000 		.word	.LANCHOR8
 2493 0180 00000000 		.word	.LANCHOR9
 2494 0184 00000000 		.word	.LANCHOR10
 2495              		.cfi_endproc
 2496              	.LFE80:
 2498              		.section	.text.Error_Handler,"ax",%progbits
 2499              		.align	1
 2500              		.global	Error_Handler
 2501              		.syntax unified
 2502              		.thumb
 2503              		.thumb_func
 2504              		.fpu softvfp
 2506              	Error_Handler:
 2507              	.LFB85:
 461:Core/Src/main.c **** 
 462:Core/Src/main.c **** void Error_Handler(void)
 463:Core/Src/main.c **** {
 2508              		.loc 1 463 1 is_stmt 1 view -0
 2509              		.cfi_startproc
ARM GAS  /tmp/ccxe0c4o.s 			page 60


 2510              		@ Volatile: function does not return.
 2511              		@ args = 0, pretend = 0, frame = 0
 2512              		@ frame_needed = 0, uses_anonymous_args = 0
 2513              		@ link register save eliminated.
 464:Core/Src/main.c ****   __disable_irq();
 2514              		.loc 1 464 3 view .LVU673
 2515              	.LBB64:
 2516              	.LBI64:
 2517              		.file 2 "Drivers/CMSIS/Include/cmsis_gcc.h"
   1:Drivers/CMSIS/Include/cmsis_gcc.h **** /**************************************************************************//**
   2:Drivers/CMSIS/Include/cmsis_gcc.h ****  * @file     cmsis_gcc.h
   3:Drivers/CMSIS/Include/cmsis_gcc.h ****  * @brief    CMSIS compiler GCC header file
   4:Drivers/CMSIS/Include/cmsis_gcc.h ****  * @version  V5.0.4
   5:Drivers/CMSIS/Include/cmsis_gcc.h ****  * @date     09. April 2018
   6:Drivers/CMSIS/Include/cmsis_gcc.h ****  ******************************************************************************/
   7:Drivers/CMSIS/Include/cmsis_gcc.h **** /*
   8:Drivers/CMSIS/Include/cmsis_gcc.h ****  * Copyright (c) 2009-2018 Arm Limited. All rights reserved.
   9:Drivers/CMSIS/Include/cmsis_gcc.h ****  *
  10:Drivers/CMSIS/Include/cmsis_gcc.h ****  * SPDX-License-Identifier: Apache-2.0
  11:Drivers/CMSIS/Include/cmsis_gcc.h ****  *
  12:Drivers/CMSIS/Include/cmsis_gcc.h ****  * Licensed under the Apache License, Version 2.0 (the License); you may
  13:Drivers/CMSIS/Include/cmsis_gcc.h ****  * not use this file except in compliance with the License.
  14:Drivers/CMSIS/Include/cmsis_gcc.h ****  * You may obtain a copy of the License at
  15:Drivers/CMSIS/Include/cmsis_gcc.h ****  *
  16:Drivers/CMSIS/Include/cmsis_gcc.h ****  * www.apache.org/licenses/LICENSE-2.0
  17:Drivers/CMSIS/Include/cmsis_gcc.h ****  *
  18:Drivers/CMSIS/Include/cmsis_gcc.h ****  * Unless required by applicable law or agreed to in writing, software
  19:Drivers/CMSIS/Include/cmsis_gcc.h ****  * distributed under the License is distributed on an AS IS BASIS, WITHOUT
  20:Drivers/CMSIS/Include/cmsis_gcc.h ****  * WARRANTIES OR CONDITIONS OF ANY KIND, either express or implied.
  21:Drivers/CMSIS/Include/cmsis_gcc.h ****  * See the License for the specific language governing permissions and
  22:Drivers/CMSIS/Include/cmsis_gcc.h ****  * limitations under the License.
  23:Drivers/CMSIS/Include/cmsis_gcc.h ****  */
  24:Drivers/CMSIS/Include/cmsis_gcc.h **** 
  25:Drivers/CMSIS/Include/cmsis_gcc.h **** #ifndef __CMSIS_GCC_H
  26:Drivers/CMSIS/Include/cmsis_gcc.h **** #define __CMSIS_GCC_H
  27:Drivers/CMSIS/Include/cmsis_gcc.h **** 
  28:Drivers/CMSIS/Include/cmsis_gcc.h **** /* ignore some GCC warnings */
  29:Drivers/CMSIS/Include/cmsis_gcc.h **** #pragma GCC diagnostic push
  30:Drivers/CMSIS/Include/cmsis_gcc.h **** #pragma GCC diagnostic ignored "-Wsign-conversion"
  31:Drivers/CMSIS/Include/cmsis_gcc.h **** #pragma GCC diagnostic ignored "-Wconversion"
  32:Drivers/CMSIS/Include/cmsis_gcc.h **** #pragma GCC diagnostic ignored "-Wunused-parameter"
  33:Drivers/CMSIS/Include/cmsis_gcc.h **** 
  34:Drivers/CMSIS/Include/cmsis_gcc.h **** /* Fallback for __has_builtin */
  35:Drivers/CMSIS/Include/cmsis_gcc.h **** #ifndef __has_builtin
  36:Drivers/CMSIS/Include/cmsis_gcc.h ****   #define __has_builtin(x) (0)
  37:Drivers/CMSIS/Include/cmsis_gcc.h **** #endif
  38:Drivers/CMSIS/Include/cmsis_gcc.h **** 
  39:Drivers/CMSIS/Include/cmsis_gcc.h **** /* CMSIS compiler specific defines */
  40:Drivers/CMSIS/Include/cmsis_gcc.h **** #ifndef   __ASM
  41:Drivers/CMSIS/Include/cmsis_gcc.h ****   #define __ASM                                  __asm
  42:Drivers/CMSIS/Include/cmsis_gcc.h **** #endif
  43:Drivers/CMSIS/Include/cmsis_gcc.h **** #ifndef   __INLINE
  44:Drivers/CMSIS/Include/cmsis_gcc.h ****   #define __INLINE                               inline
  45:Drivers/CMSIS/Include/cmsis_gcc.h **** #endif
  46:Drivers/CMSIS/Include/cmsis_gcc.h **** #ifndef   __STATIC_INLINE
  47:Drivers/CMSIS/Include/cmsis_gcc.h ****   #define __STATIC_INLINE                        static inline
  48:Drivers/CMSIS/Include/cmsis_gcc.h **** #endif
ARM GAS  /tmp/ccxe0c4o.s 			page 61


  49:Drivers/CMSIS/Include/cmsis_gcc.h **** #ifndef   __STATIC_FORCEINLINE                 
  50:Drivers/CMSIS/Include/cmsis_gcc.h ****   #define __STATIC_FORCEINLINE                   __attribute__((always_inline)) static inline
  51:Drivers/CMSIS/Include/cmsis_gcc.h **** #endif                                           
  52:Drivers/CMSIS/Include/cmsis_gcc.h **** #ifndef   __NO_RETURN
  53:Drivers/CMSIS/Include/cmsis_gcc.h ****   #define __NO_RETURN                            __attribute__((__noreturn__))
  54:Drivers/CMSIS/Include/cmsis_gcc.h **** #endif
  55:Drivers/CMSIS/Include/cmsis_gcc.h **** #ifndef   __USED
  56:Drivers/CMSIS/Include/cmsis_gcc.h ****   #define __USED                                 __attribute__((used))
  57:Drivers/CMSIS/Include/cmsis_gcc.h **** #endif
  58:Drivers/CMSIS/Include/cmsis_gcc.h **** #ifndef   __WEAK
  59:Drivers/CMSIS/Include/cmsis_gcc.h ****   #define __WEAK                                 __attribute__((weak))
  60:Drivers/CMSIS/Include/cmsis_gcc.h **** #endif
  61:Drivers/CMSIS/Include/cmsis_gcc.h **** #ifndef   __PACKED
  62:Drivers/CMSIS/Include/cmsis_gcc.h ****   #define __PACKED                               __attribute__((packed, aligned(1)))
  63:Drivers/CMSIS/Include/cmsis_gcc.h **** #endif
  64:Drivers/CMSIS/Include/cmsis_gcc.h **** #ifndef   __PACKED_STRUCT
  65:Drivers/CMSIS/Include/cmsis_gcc.h ****   #define __PACKED_STRUCT                        struct __attribute__((packed, aligned(1)))
  66:Drivers/CMSIS/Include/cmsis_gcc.h **** #endif
  67:Drivers/CMSIS/Include/cmsis_gcc.h **** #ifndef   __PACKED_UNION
  68:Drivers/CMSIS/Include/cmsis_gcc.h ****   #define __PACKED_UNION                         union __attribute__((packed, aligned(1)))
  69:Drivers/CMSIS/Include/cmsis_gcc.h **** #endif
  70:Drivers/CMSIS/Include/cmsis_gcc.h **** #ifndef   __UNALIGNED_UINT32        /* deprecated */
  71:Drivers/CMSIS/Include/cmsis_gcc.h ****   #pragma GCC diagnostic push
  72:Drivers/CMSIS/Include/cmsis_gcc.h ****   #pragma GCC diagnostic ignored "-Wpacked"
  73:Drivers/CMSIS/Include/cmsis_gcc.h ****   #pragma GCC diagnostic ignored "-Wattributes"
  74:Drivers/CMSIS/Include/cmsis_gcc.h ****   struct __attribute__((packed)) T_UINT32 { uint32_t v; };
  75:Drivers/CMSIS/Include/cmsis_gcc.h ****   #pragma GCC diagnostic pop
  76:Drivers/CMSIS/Include/cmsis_gcc.h ****   #define __UNALIGNED_UINT32(x)                  (((struct T_UINT32 *)(x))->v)
  77:Drivers/CMSIS/Include/cmsis_gcc.h **** #endif
  78:Drivers/CMSIS/Include/cmsis_gcc.h **** #ifndef   __UNALIGNED_UINT16_WRITE
  79:Drivers/CMSIS/Include/cmsis_gcc.h ****   #pragma GCC diagnostic push
  80:Drivers/CMSIS/Include/cmsis_gcc.h ****   #pragma GCC diagnostic ignored "-Wpacked"
  81:Drivers/CMSIS/Include/cmsis_gcc.h ****   #pragma GCC diagnostic ignored "-Wattributes"
  82:Drivers/CMSIS/Include/cmsis_gcc.h ****   __PACKED_STRUCT T_UINT16_WRITE { uint16_t v; };
  83:Drivers/CMSIS/Include/cmsis_gcc.h ****   #pragma GCC diagnostic pop
  84:Drivers/CMSIS/Include/cmsis_gcc.h ****   #define __UNALIGNED_UINT16_WRITE(addr, val)    (void)((((struct T_UINT16_WRITE *)(void *)(addr))-
  85:Drivers/CMSIS/Include/cmsis_gcc.h **** #endif
  86:Drivers/CMSIS/Include/cmsis_gcc.h **** #ifndef   __UNALIGNED_UINT16_READ
  87:Drivers/CMSIS/Include/cmsis_gcc.h ****   #pragma GCC diagnostic push
  88:Drivers/CMSIS/Include/cmsis_gcc.h ****   #pragma GCC diagnostic ignored "-Wpacked"
  89:Drivers/CMSIS/Include/cmsis_gcc.h ****   #pragma GCC diagnostic ignored "-Wattributes"
  90:Drivers/CMSIS/Include/cmsis_gcc.h ****   __PACKED_STRUCT T_UINT16_READ { uint16_t v; };
  91:Drivers/CMSIS/Include/cmsis_gcc.h ****   #pragma GCC diagnostic pop
  92:Drivers/CMSIS/Include/cmsis_gcc.h ****   #define __UNALIGNED_UINT16_READ(addr)          (((const struct T_UINT16_READ *)(const void *)(add
  93:Drivers/CMSIS/Include/cmsis_gcc.h **** #endif
  94:Drivers/CMSIS/Include/cmsis_gcc.h **** #ifndef   __UNALIGNED_UINT32_WRITE
  95:Drivers/CMSIS/Include/cmsis_gcc.h ****   #pragma GCC diagnostic push
  96:Drivers/CMSIS/Include/cmsis_gcc.h ****   #pragma GCC diagnostic ignored "-Wpacked"
  97:Drivers/CMSIS/Include/cmsis_gcc.h ****   #pragma GCC diagnostic ignored "-Wattributes"
  98:Drivers/CMSIS/Include/cmsis_gcc.h ****   __PACKED_STRUCT T_UINT32_WRITE { uint32_t v; };
  99:Drivers/CMSIS/Include/cmsis_gcc.h ****   #pragma GCC diagnostic pop
 100:Drivers/CMSIS/Include/cmsis_gcc.h ****   #define __UNALIGNED_UINT32_WRITE(addr, val)    (void)((((struct T_UINT32_WRITE *)(void *)(addr))-
 101:Drivers/CMSIS/Include/cmsis_gcc.h **** #endif
 102:Drivers/CMSIS/Include/cmsis_gcc.h **** #ifndef   __UNALIGNED_UINT32_READ
 103:Drivers/CMSIS/Include/cmsis_gcc.h ****   #pragma GCC diagnostic push
 104:Drivers/CMSIS/Include/cmsis_gcc.h ****   #pragma GCC diagnostic ignored "-Wpacked"
 105:Drivers/CMSIS/Include/cmsis_gcc.h ****   #pragma GCC diagnostic ignored "-Wattributes"
ARM GAS  /tmp/ccxe0c4o.s 			page 62


 106:Drivers/CMSIS/Include/cmsis_gcc.h ****   __PACKED_STRUCT T_UINT32_READ { uint32_t v; };
 107:Drivers/CMSIS/Include/cmsis_gcc.h ****   #pragma GCC diagnostic pop
 108:Drivers/CMSIS/Include/cmsis_gcc.h ****   #define __UNALIGNED_UINT32_READ(addr)          (((const struct T_UINT32_READ *)(const void *)(add
 109:Drivers/CMSIS/Include/cmsis_gcc.h **** #endif
 110:Drivers/CMSIS/Include/cmsis_gcc.h **** #ifndef   __ALIGNED
 111:Drivers/CMSIS/Include/cmsis_gcc.h ****   #define __ALIGNED(x)                           __attribute__((aligned(x)))
 112:Drivers/CMSIS/Include/cmsis_gcc.h **** #endif
 113:Drivers/CMSIS/Include/cmsis_gcc.h **** #ifndef   __RESTRICT
 114:Drivers/CMSIS/Include/cmsis_gcc.h ****   #define __RESTRICT                             __restrict
 115:Drivers/CMSIS/Include/cmsis_gcc.h **** #endif
 116:Drivers/CMSIS/Include/cmsis_gcc.h **** 
 117:Drivers/CMSIS/Include/cmsis_gcc.h **** 
 118:Drivers/CMSIS/Include/cmsis_gcc.h **** /* ###########################  Core Function Access  ########################### */
 119:Drivers/CMSIS/Include/cmsis_gcc.h **** /** \ingroup  CMSIS_Core_FunctionInterface
 120:Drivers/CMSIS/Include/cmsis_gcc.h ****     \defgroup CMSIS_Core_RegAccFunctions CMSIS Core Register Access Functions
 121:Drivers/CMSIS/Include/cmsis_gcc.h ****   @{
 122:Drivers/CMSIS/Include/cmsis_gcc.h ****  */
 123:Drivers/CMSIS/Include/cmsis_gcc.h **** 
 124:Drivers/CMSIS/Include/cmsis_gcc.h **** /**
 125:Drivers/CMSIS/Include/cmsis_gcc.h ****   \brief   Enable IRQ Interrupts
 126:Drivers/CMSIS/Include/cmsis_gcc.h ****   \details Enables IRQ interrupts by clearing the I-bit in the CPSR.
 127:Drivers/CMSIS/Include/cmsis_gcc.h ****            Can only be executed in Privileged modes.
 128:Drivers/CMSIS/Include/cmsis_gcc.h ****  */
 129:Drivers/CMSIS/Include/cmsis_gcc.h **** __STATIC_FORCEINLINE void __enable_irq(void)
 130:Drivers/CMSIS/Include/cmsis_gcc.h **** {
 131:Drivers/CMSIS/Include/cmsis_gcc.h ****   __ASM volatile ("cpsie i" : : : "memory");
 132:Drivers/CMSIS/Include/cmsis_gcc.h **** }
 133:Drivers/CMSIS/Include/cmsis_gcc.h **** 
 134:Drivers/CMSIS/Include/cmsis_gcc.h **** 
 135:Drivers/CMSIS/Include/cmsis_gcc.h **** /**
 136:Drivers/CMSIS/Include/cmsis_gcc.h ****   \brief   Disable IRQ Interrupts
 137:Drivers/CMSIS/Include/cmsis_gcc.h ****   \details Disables IRQ interrupts by setting the I-bit in the CPSR.
 138:Drivers/CMSIS/Include/cmsis_gcc.h ****            Can only be executed in Privileged modes.
 139:Drivers/CMSIS/Include/cmsis_gcc.h ****  */
 140:Drivers/CMSIS/Include/cmsis_gcc.h **** __STATIC_FORCEINLINE void __disable_irq(void)
 2518              		.loc 2 140 27 view .LVU674
 2519              	.LBB65:
 141:Drivers/CMSIS/Include/cmsis_gcc.h **** {
 142:Drivers/CMSIS/Include/cmsis_gcc.h ****   __ASM volatile ("cpsid i" : : : "memory");
 2520              		.loc 2 142 3 view .LVU675
 2521              		.syntax unified
 2522              	@ 142 "Drivers/CMSIS/Include/cmsis_gcc.h" 1
 2523 0000 72B6     		cpsid i
 2524              	@ 0 "" 2
 2525              		.thumb
 2526              		.syntax unified
 2527              	.L111:
 2528              	.LBE65:
 2529              	.LBE64:
 465:Core/Src/main.c ****   while (1) {}
 2530              		.loc 1 465 3 discriminator 1 view .LVU676
 2531              		.loc 1 465 14 discriminator 1 view .LVU677
 2532              		.loc 1 465 9 discriminator 1 view .LVU678
 2533 0002 FEE7     		b	.L111
 2534              		.cfi_endproc
 2535              	.LFE85:
 2537              		.section	.text.MX_SPI1_Init,"ax",%progbits
ARM GAS  /tmp/ccxe0c4o.s 			page 63


 2538              		.align	1
 2539              		.syntax unified
 2540              		.thumb
 2541              		.thumb_func
 2542              		.fpu softvfp
 2544              	MX_SPI1_Init:
 2545              	.LFB83:
 418:Core/Src/main.c ****   hspi1.Instance = SPI1;
 2546              		.loc 1 418 1 view -0
 2547              		.cfi_startproc
 2548              		@ args = 0, pretend = 0, frame = 0
 2549              		@ frame_needed = 0, uses_anonymous_args = 0
 2550 0000 08B5     		push	{r3, lr}
 2551              	.LCFI42:
 2552              		.cfi_def_cfa_offset 8
 2553              		.cfi_offset 3, -8
 2554              		.cfi_offset 14, -4
 419:Core/Src/main.c ****   hspi1.Init.Mode = SPI_MODE_MASTER;
 2555              		.loc 1 419 3 view .LVU680
 419:Core/Src/main.c ****   hspi1.Init.Mode = SPI_MODE_MASTER;
 2556              		.loc 1 419 18 is_stmt 0 view .LVU681
 2557 0002 0D48     		ldr	r0, .L116
 2558 0004 0D4B     		ldr	r3, .L116+4
 2559 0006 0360     		str	r3, [r0]
 420:Core/Src/main.c ****   hspi1.Init.Direction = SPI_DIRECTION_2LINES;
 2560              		.loc 1 420 3 is_stmt 1 view .LVU682
 420:Core/Src/main.c ****   hspi1.Init.Direction = SPI_DIRECTION_2LINES;
 2561              		.loc 1 420 19 is_stmt 0 view .LVU683
 2562 0008 4FF48273 		mov	r3, #260
 2563 000c 4360     		str	r3, [r0, #4]
 421:Core/Src/main.c ****   hspi1.Init.DataSize = SPI_DATASIZE_8BIT;
 2564              		.loc 1 421 3 is_stmt 1 view .LVU684
 421:Core/Src/main.c ****   hspi1.Init.DataSize = SPI_DATASIZE_8BIT;
 2565              		.loc 1 421 24 is_stmt 0 view .LVU685
 2566 000e 0023     		movs	r3, #0
 2567 0010 8360     		str	r3, [r0, #8]
 422:Core/Src/main.c ****   hspi1.Init.CLKPolarity = SPI_POLARITY_LOW;
 2568              		.loc 1 422 3 is_stmt 1 view .LVU686
 422:Core/Src/main.c ****   hspi1.Init.CLKPolarity = SPI_POLARITY_LOW;
 2569              		.loc 1 422 23 is_stmt 0 view .LVU687
 2570 0012 C360     		str	r3, [r0, #12]
 423:Core/Src/main.c ****   hspi1.Init.CLKPhase = SPI_PHASE_1EDGE;
 2571              		.loc 1 423 3 is_stmt 1 view .LVU688
 423:Core/Src/main.c ****   hspi1.Init.CLKPhase = SPI_PHASE_1EDGE;
 2572              		.loc 1 423 26 is_stmt 0 view .LVU689
 2573 0014 0361     		str	r3, [r0, #16]
 424:Core/Src/main.c ****   hspi1.Init.NSS = SPI_NSS_SOFT;
 2574              		.loc 1 424 3 is_stmt 1 view .LVU690
 424:Core/Src/main.c ****   hspi1.Init.NSS = SPI_NSS_SOFT;
 2575              		.loc 1 424 23 is_stmt 0 view .LVU691
 2576 0016 4361     		str	r3, [r0, #20]
 425:Core/Src/main.c ****   hspi1.Init.BaudRatePrescaler = SPI_BAUDRATEPRESCALER_16;
 2577              		.loc 1 425 3 is_stmt 1 view .LVU692
 425:Core/Src/main.c ****   hspi1.Init.BaudRatePrescaler = SPI_BAUDRATEPRESCALER_16;
 2578              		.loc 1 425 18 is_stmt 0 view .LVU693
 2579 0018 4FF40072 		mov	r2, #512
 2580 001c 8261     		str	r2, [r0, #24]
ARM GAS  /tmp/ccxe0c4o.s 			page 64


 426:Core/Src/main.c ****   hspi1.Init.FirstBit = SPI_FIRSTBIT_MSB;
 2581              		.loc 1 426 3 is_stmt 1 view .LVU694
 426:Core/Src/main.c ****   hspi1.Init.FirstBit = SPI_FIRSTBIT_MSB;
 2582              		.loc 1 426 32 is_stmt 0 view .LVU695
 2583 001e 1822     		movs	r2, #24
 2584 0020 C261     		str	r2, [r0, #28]
 427:Core/Src/main.c ****   hspi1.Init.TIMode = SPI_TIMODE_DISABLE;
 2585              		.loc 1 427 3 is_stmt 1 view .LVU696
 427:Core/Src/main.c ****   hspi1.Init.TIMode = SPI_TIMODE_DISABLE;
 2586              		.loc 1 427 23 is_stmt 0 view .LVU697
 2587 0022 0362     		str	r3, [r0, #32]
 428:Core/Src/main.c ****   hspi1.Init.CRCCalculation = SPI_CRCCALCULATION_DISABLE;
 2588              		.loc 1 428 3 is_stmt 1 view .LVU698
 428:Core/Src/main.c ****   hspi1.Init.CRCCalculation = SPI_CRCCALCULATION_DISABLE;
 2589              		.loc 1 428 21 is_stmt 0 view .LVU699
 2590 0024 4362     		str	r3, [r0, #36]
 429:Core/Src/main.c ****   hspi1.Init.CRCPolynomial = 10;
 2591              		.loc 1 429 3 is_stmt 1 view .LVU700
 429:Core/Src/main.c ****   hspi1.Init.CRCPolynomial = 10;
 2592              		.loc 1 429 29 is_stmt 0 view .LVU701
 2593 0026 8362     		str	r3, [r0, #40]
 430:Core/Src/main.c ****   if (HAL_SPI_Init(&hspi1) != HAL_OK) Error_Handler();
 2594              		.loc 1 430 3 is_stmt 1 view .LVU702
 430:Core/Src/main.c ****   if (HAL_SPI_Init(&hspi1) != HAL_OK) Error_Handler();
 2595              		.loc 1 430 28 is_stmt 0 view .LVU703
 2596 0028 0A23     		movs	r3, #10
 2597 002a C362     		str	r3, [r0, #44]
 431:Core/Src/main.c **** }
 2598              		.loc 1 431 3 is_stmt 1 view .LVU704
 431:Core/Src/main.c **** }
 2599              		.loc 1 431 7 is_stmt 0 view .LVU705
 2600 002c FFF7FEFF 		bl	HAL_SPI_Init
 2601              	.LVL205:
 431:Core/Src/main.c **** }
 2602              		.loc 1 431 6 view .LVU706
 2603 0030 00B9     		cbnz	r0, .L115
 432:Core/Src/main.c **** 
 2604              		.loc 1 432 1 view .LVU707
 2605 0032 08BD     		pop	{r3, pc}
 2606              	.L115:
 431:Core/Src/main.c **** }
 2607              		.loc 1 431 39 is_stmt 1 discriminator 1 view .LVU708
 2608 0034 FFF7FEFF 		bl	Error_Handler
 2609              	.LVL206:
 2610              	.L117:
 2611              		.align	2
 2612              	.L116:
 2613 0038 00000000 		.word	.LANCHOR1
 2614 003c 00300140 		.word	1073819648
 2615              		.cfi_endproc
 2616              	.LFE83:
 2618              		.section	.text.SystemClock_Config,"ax",%progbits
 2619              		.align	1
 2620              		.global	SystemClock_Config
 2621              		.syntax unified
 2622              		.thumb
 2623              		.thumb_func
ARM GAS  /tmp/ccxe0c4o.s 			page 65


 2624              		.fpu softvfp
 2626              	SystemClock_Config:
 2627              	.LFB82:
 400:Core/Src/main.c ****   RCC_OscInitTypeDef RCC_OscInitStruct = {0};
 2628              		.loc 1 400 1 view -0
 2629              		.cfi_startproc
 2630              		@ args = 0, pretend = 0, frame = 64
 2631              		@ frame_needed = 0, uses_anonymous_args = 0
 2632 0000 00B5     		push	{lr}
 2633              	.LCFI43:
 2634              		.cfi_def_cfa_offset 4
 2635              		.cfi_offset 14, -4
 2636 0002 91B0     		sub	sp, sp, #68
 2637              	.LCFI44:
 2638              		.cfi_def_cfa_offset 72
 401:Core/Src/main.c ****   RCC_ClkInitTypeDef RCC_ClkInitStruct = {0};
 2639              		.loc 1 401 3 view .LVU710
 401:Core/Src/main.c ****   RCC_ClkInitTypeDef RCC_ClkInitStruct = {0};
 2640              		.loc 1 401 22 is_stmt 0 view .LVU711
 2641 0004 2822     		movs	r2, #40
 2642 0006 0021     		movs	r1, #0
 2643 0008 06A8     		add	r0, sp, #24
 2644 000a FFF7FEFF 		bl	memset
 2645              	.LVL207:
 402:Core/Src/main.c ****   RCC_OscInitStruct.OscillatorType = RCC_OSCILLATORTYPE_HSI;
 2646              		.loc 1 402 3 is_stmt 1 view .LVU712
 402:Core/Src/main.c ****   RCC_OscInitStruct.OscillatorType = RCC_OSCILLATORTYPE_HSI;
 2647              		.loc 1 402 22 is_stmt 0 view .LVU713
 2648 000e 0023     		movs	r3, #0
 2649 0010 0193     		str	r3, [sp, #4]
 2650 0012 0293     		str	r3, [sp, #8]
 2651 0014 0393     		str	r3, [sp, #12]
 2652 0016 0493     		str	r3, [sp, #16]
 2653 0018 0593     		str	r3, [sp, #20]
 403:Core/Src/main.c ****   RCC_OscInitStruct.HSIState = RCC_HSI_ON;
 2654              		.loc 1 403 3 is_stmt 1 view .LVU714
 403:Core/Src/main.c ****   RCC_OscInitStruct.HSIState = RCC_HSI_ON;
 2655              		.loc 1 403 36 is_stmt 0 view .LVU715
 2656 001a 0223     		movs	r3, #2
 2657 001c 0693     		str	r3, [sp, #24]
 404:Core/Src/main.c ****   RCC_OscInitStruct.HSICalibrationValue = RCC_HSICALIBRATION_DEFAULT;
 2658              		.loc 1 404 3 is_stmt 1 view .LVU716
 404:Core/Src/main.c ****   RCC_OscInitStruct.HSICalibrationValue = RCC_HSICALIBRATION_DEFAULT;
 2659              		.loc 1 404 30 is_stmt 0 view .LVU717
 2660 001e 0123     		movs	r3, #1
 2661 0020 0A93     		str	r3, [sp, #40]
 405:Core/Src/main.c ****   RCC_OscInitStruct.PLL.PLLState = RCC_PLL_NONE;
 2662              		.loc 1 405 3 is_stmt 1 view .LVU718
 405:Core/Src/main.c ****   RCC_OscInitStruct.PLL.PLLState = RCC_PLL_NONE;
 2663              		.loc 1 405 41 is_stmt 0 view .LVU719
 2664 0022 1023     		movs	r3, #16
 2665 0024 0B93     		str	r3, [sp, #44]
 406:Core/Src/main.c ****   if (HAL_RCC_OscConfig(&RCC_OscInitStruct) != HAL_OK) Error_Handler();
 2666              		.loc 1 406 3 is_stmt 1 view .LVU720
 407:Core/Src/main.c ****   RCC_ClkInitStruct.ClockType = RCC_CLOCKTYPE_HCLK|RCC_CLOCKTYPE_SYSCLK
 2667              		.loc 1 407 3 view .LVU721
 407:Core/Src/main.c ****   RCC_ClkInitStruct.ClockType = RCC_CLOCKTYPE_HCLK|RCC_CLOCKTYPE_SYSCLK
ARM GAS  /tmp/ccxe0c4o.s 			page 66


 2668              		.loc 1 407 7 is_stmt 0 view .LVU722
 2669 0026 06A8     		add	r0, sp, #24
 2670 0028 FFF7FEFF 		bl	HAL_RCC_OscConfig
 2671              	.LVL208:
 407:Core/Src/main.c ****   RCC_ClkInitStruct.ClockType = RCC_CLOCKTYPE_HCLK|RCC_CLOCKTYPE_SYSCLK
 2672              		.loc 1 407 6 view .LVU723
 2673 002c 68B9     		cbnz	r0, .L122
 408:Core/Src/main.c ****                               |RCC_CLOCKTYPE_PCLK1|RCC_CLOCKTYPE_PCLK2;
 2674              		.loc 1 408 3 is_stmt 1 view .LVU724
 408:Core/Src/main.c ****                               |RCC_CLOCKTYPE_PCLK1|RCC_CLOCKTYPE_PCLK2;
 2675              		.loc 1 408 31 is_stmt 0 view .LVU725
 2676 002e 0F23     		movs	r3, #15
 2677 0030 0193     		str	r3, [sp, #4]
 410:Core/Src/main.c ****   RCC_ClkInitStruct.AHBCLKDivider = RCC_SYSCLK_DIV1;
 2678              		.loc 1 410 3 is_stmt 1 view .LVU726
 410:Core/Src/main.c ****   RCC_ClkInitStruct.AHBCLKDivider = RCC_SYSCLK_DIV1;
 2679              		.loc 1 410 34 is_stmt 0 view .LVU727
 2680 0032 0021     		movs	r1, #0
 2681 0034 0291     		str	r1, [sp, #8]
 411:Core/Src/main.c ****   RCC_ClkInitStruct.APB1CLKDivider = RCC_HCLK_DIV1;
 2682              		.loc 1 411 3 is_stmt 1 view .LVU728
 411:Core/Src/main.c ****   RCC_ClkInitStruct.APB1CLKDivider = RCC_HCLK_DIV1;
 2683              		.loc 1 411 35 is_stmt 0 view .LVU729
 2684 0036 0391     		str	r1, [sp, #12]
 412:Core/Src/main.c ****   RCC_ClkInitStruct.APB2CLKDivider = RCC_HCLK_DIV1;
 2685              		.loc 1 412 3 is_stmt 1 view .LVU730
 412:Core/Src/main.c ****   RCC_ClkInitStruct.APB2CLKDivider = RCC_HCLK_DIV1;
 2686              		.loc 1 412 36 is_stmt 0 view .LVU731
 2687 0038 0491     		str	r1, [sp, #16]
 413:Core/Src/main.c ****   if (HAL_RCC_ClockConfig(&RCC_ClkInitStruct, FLASH_LATENCY_0) != HAL_OK) Error_Handler();
 2688              		.loc 1 413 3 is_stmt 1 view .LVU732
 413:Core/Src/main.c ****   if (HAL_RCC_ClockConfig(&RCC_ClkInitStruct, FLASH_LATENCY_0) != HAL_OK) Error_Handler();
 2689              		.loc 1 413 36 is_stmt 0 view .LVU733
 2690 003a 0591     		str	r1, [sp, #20]
 414:Core/Src/main.c **** }
 2691              		.loc 1 414 3 is_stmt 1 view .LVU734
 414:Core/Src/main.c **** }
 2692              		.loc 1 414 7 is_stmt 0 view .LVU735
 2693 003c 01A8     		add	r0, sp, #4
 2694 003e FFF7FEFF 		bl	HAL_RCC_ClockConfig
 2695              	.LVL209:
 414:Core/Src/main.c **** }
 2696              		.loc 1 414 6 view .LVU736
 2697 0042 20B9     		cbnz	r0, .L123
 415:Core/Src/main.c **** 
 2698              		.loc 1 415 1 view .LVU737
 2699 0044 11B0     		add	sp, sp, #68
 2700              	.LCFI45:
 2701              		.cfi_remember_state
 2702              		.cfi_def_cfa_offset 4
 2703              		@ sp needed
 2704 0046 5DF804FB 		ldr	pc, [sp], #4
 2705              	.L122:
 2706              	.LCFI46:
 2707              		.cfi_restore_state
 407:Core/Src/main.c ****   RCC_ClkInitStruct.ClockType = RCC_CLOCKTYPE_HCLK|RCC_CLOCKTYPE_SYSCLK
 2708              		.loc 1 407 56 is_stmt 1 discriminator 1 view .LVU738
ARM GAS  /tmp/ccxe0c4o.s 			page 67


 2709 004a FFF7FEFF 		bl	Error_Handler
 2710              	.LVL210:
 2711              	.L123:
 414:Core/Src/main.c **** }
 2712              		.loc 1 414 75 discriminator 1 view .LVU739
 2713 004e FFF7FEFF 		bl	Error_Handler
 2714              	.LVL211:
 2715              		.cfi_endproc
 2716              	.LFE82:
 2718              		.section	.text.main,"ax",%progbits
 2719              		.align	1
 2720              		.global	main
 2721              		.syntax unified
 2722              		.thumb
 2723              		.thumb_func
 2724              		.fpu softvfp
 2726              	main:
 2727              	.LFB81:
 375:Core/Src/main.c ****   HAL_Init();
 2728              		.loc 1 375 1 view -0
 2729              		.cfi_startproc
 2730              		@ args = 0, pretend = 0, frame = 8
 2731              		@ frame_needed = 0, uses_anonymous_args = 0
 2732 0000 10B5     		push	{r4, lr}
 2733              	.LCFI47:
 2734              		.cfi_def_cfa_offset 8
 2735              		.cfi_offset 4, -8
 2736              		.cfi_offset 14, -4
 2737 0002 82B0     		sub	sp, sp, #8
 2738              	.LCFI48:
 2739              		.cfi_def_cfa_offset 16
 376:Core/Src/main.c ****   SystemClock_Config();
 2740              		.loc 1 376 3 view .LVU741
 2741 0004 FFF7FEFF 		bl	HAL_Init
 2742              	.LVL212:
 377:Core/Src/main.c ****   MX_GPIO_Init();
 2743              		.loc 1 377 3 view .LVU742
 2744 0008 FFF7FEFF 		bl	SystemClock_Config
 2745              	.LVL213:
 378:Core/Src/main.c ****   MX_SPI1_Init();
 2746              		.loc 1 378 3 view .LVU743
 2747 000c FFF7FEFF 		bl	MX_GPIO_Init
 2748              	.LVL214:
 379:Core/Src/main.c **** 
 2749              		.loc 1 379 3 view .LVU744
 2750 0010 FFF7FEFF 		bl	MX_SPI1_Init
 2751              	.LVL215:
 381:Core/Src/main.c ****   __HAL_AFIO_REMAP_SWJ_NOJTAG();
 2752              		.loc 1 381 3 view .LVU745
 2753              	.LBB66:
 381:Core/Src/main.c ****   __HAL_AFIO_REMAP_SWJ_NOJTAG();
 2754              		.loc 1 381 3 view .LVU746
 381:Core/Src/main.c ****   __HAL_AFIO_REMAP_SWJ_NOJTAG();
 2755              		.loc 1 381 3 view .LVU747
 2756 0014 1B4B     		ldr	r3, .L127
 2757 0016 9A69     		ldr	r2, [r3, #24]
 2758 0018 42F00102 		orr	r2, r2, #1
ARM GAS  /tmp/ccxe0c4o.s 			page 68


 2759 001c 9A61     		str	r2, [r3, #24]
 381:Core/Src/main.c ****   __HAL_AFIO_REMAP_SWJ_NOJTAG();
 2760              		.loc 1 381 3 view .LVU748
 2761 001e 9B69     		ldr	r3, [r3, #24]
 2762 0020 03F00103 		and	r3, r3, #1
 2763 0024 0193     		str	r3, [sp, #4]
 381:Core/Src/main.c ****   __HAL_AFIO_REMAP_SWJ_NOJTAG();
 2764              		.loc 1 381 3 view .LVU749
 2765 0026 019B     		ldr	r3, [sp, #4]
 2766              	.LBE66:
 381:Core/Src/main.c ****   __HAL_AFIO_REMAP_SWJ_NOJTAG();
 2767              		.loc 1 381 3 view .LVU750
 382:Core/Src/main.c ****   HAL_Delay(500);
 2768              		.loc 1 382 3 view .LVU751
 2769              	.LBB67:
 382:Core/Src/main.c ****   HAL_Delay(500);
 2770              		.loc 1 382 3 view .LVU752
 2771 0028 174A     		ldr	r2, .L127+4
 2772 002a 5368     		ldr	r3, [r2, #4]
 2773              	.LVL216:
 382:Core/Src/main.c ****   HAL_Delay(500);
 2774              		.loc 1 382 3 view .LVU753
 2775 002c 23F0E063 		bic	r3, r3, #117440512
 2776              	.LVL217:
 382:Core/Src/main.c ****   HAL_Delay(500);
 2777              		.loc 1 382 3 view .LVU754
 2778 0030 43F00073 		orr	r3, r3, #33554432
 2779              	.LVL218:
 382:Core/Src/main.c ****   HAL_Delay(500);
 2780              		.loc 1 382 3 view .LVU755
 2781 0034 5360     		str	r3, [r2, #4]
 2782              	.LBE67:
 382:Core/Src/main.c ****   HAL_Delay(500);
 2783              		.loc 1 382 3 view .LVU756
 383:Core/Src/main.c **** 
 2784              		.loc 1 383 3 view .LVU757
 2785 0036 4FF4FA70 		mov	r0, #500
 2786 003a FFF7FEFF 		bl	HAL_Delay
 2787              	.LVL219:
 385:Core/Src/main.c ****   reg320    = sx_readreg(0x0320);
 2788              		.loc 1 385 3 view .LVU758
 2789 003e FFF7FEFF 		bl	sx_reset
 2790              	.LVL220:
 386:Core/Src/main.c ****   sx_status = sx_chipmode();
 2791              		.loc 1 386 3 view .LVU759
 386:Core/Src/main.c ****   sx_status = sx_chipmode();
 2792              		.loc 1 386 15 is_stmt 0 view .LVU760
 2793 0042 4FF44870 		mov	r0, #800
 2794 0046 FFF7FEFF 		bl	sx_readreg
 2795              	.LVL221:
 386:Core/Src/main.c ****   sx_status = sx_chipmode();
 2796              		.loc 1 386 13 view .LVU761
 2797 004a 104B     		ldr	r3, .L127+8
 2798 004c 1870     		strb	r0, [r3]
 387:Core/Src/main.c ****   sx_radio_config();
 2799              		.loc 1 387 3 is_stmt 1 view .LVU762
 387:Core/Src/main.c ****   sx_radio_config();
ARM GAS  /tmp/ccxe0c4o.s 			page 69


 2800              		.loc 1 387 15 is_stmt 0 view .LVU763
 2801 004e FFF7FEFF 		bl	sx_chipmode
 2802              	.LVL222:
 387:Core/Src/main.c ****   sx_radio_config();
 2803              		.loc 1 387 13 view .LVU764
 2804 0052 0F4B     		ldr	r3, .L127+12
 2805 0054 1870     		strb	r0, [r3]
 388:Core/Src/main.c **** 
 2806              		.loc 1 388 3 is_stmt 1 view .LVU765
 2807 0056 FFF7FEFF 		bl	sx_radio_config
 2808              	.LVL223:
 2809              	.L125:
 390:Core/Src/main.c ****   {
 2810              		.loc 1 390 3 discriminator 1 view .LVU766
 392:Core/Src/main.c ****     sx_send_packet();
 2811              		.loc 1 392 5 discriminator 1 view .LVU767
 2812 005a 0E4C     		ldr	r4, .L127+16
 2813 005c 0022     		movs	r2, #0
 2814 005e 4FF40051 		mov	r1, #8192
 2815 0062 2046     		mov	r0, r4
 2816 0064 FFF7FEFF 		bl	HAL_GPIO_WritePin
 2817              	.LVL224:
 393:Core/Src/main.c ****     HAL_GPIO_WritePin(GPIOC, GPIO_PIN_13, GPIO_PIN_SET);
 2818              		.loc 1 393 5 discriminator 1 view .LVU768
 2819 0068 FFF7FEFF 		bl	sx_send_packet
 2820              	.LVL225:
 394:Core/Src/main.c ****     HAL_Delay(3000);
 2821              		.loc 1 394 5 discriminator 1 view .LVU769
 2822 006c 0122     		movs	r2, #1
 2823 006e 4FF40051 		mov	r1, #8192
 2824 0072 2046     		mov	r0, r4
 2825 0074 FFF7FEFF 		bl	HAL_GPIO_WritePin
 2826              	.LVL226:
 395:Core/Src/main.c ****   }
 2827              		.loc 1 395 5 discriminator 1 view .LVU770
 2828 0078 40F6B830 		movw	r0, #3000
 2829 007c FFF7FEFF 		bl	HAL_Delay
 2830              	.LVL227:
 390:Core/Src/main.c ****   {
 2831              		.loc 1 390 8 discriminator 1 view .LVU771
 2832 0080 EBE7     		b	.L125
 2833              	.L128:
 2834 0082 00BF     		.align	2
 2835              	.L127:
 2836 0084 00100240 		.word	1073876992
 2837 0088 00000140 		.word	1073807360
 2838 008c 00000000 		.word	.LANCHOR11
 2839 0090 00000000 		.word	.LANCHOR12
 2840 0094 00100140 		.word	1073811456
 2841              		.cfi_endproc
 2842              	.LFE81:
 2844              		.global	tx_count
 2845              		.global	tx_reached
 2846              		.global	mode_after_tx
 2847              		.global	err_lsb
 2848              		.global	reg320
 2849              		.global	sx_status
ARM GAS  /tmp/ccxe0c4o.s 			page 70


 2850              		.global	hspi1
 2851              		.section	.rodata
 2852              		.align	2
 2853              		.set	.LANCHOR2,. + 0
 2854              	.LC2:
 2855 0000 95040700 		.ascii	"\225\004\007\000\001"
 2855      01
 2856 0005 000000   		.space	3
 2857              	.LC6:
 2858 0008 8F0000   		.ascii	"\217\000\000"
 2859              		.section	.bss.err_lsb,"aw",%nobits
 2860              		.set	.LANCHOR9,. + 0
 2863              	err_lsb:
 2864 0000 00       		.space	1
 2865              		.section	.bss.fcnt_up,"aw",%nobits
 2866              		.align	2
 2867              		.set	.LANCHOR6,. + 0
 2870              	fcnt_up:
 2871 0000 00000000 		.space	4
 2872              		.section	.bss.hspi1,"aw",%nobits
 2873              		.align	2
 2874              		.set	.LANCHOR1,. + 0
 2877              	hspi1:
 2878 0000 00000000 		.space	88
 2878      00000000 
 2878      00000000 
 2878      00000000 
 2878      00000000 
 2879              		.section	.bss.mode_after_tx,"aw",%nobits
 2880              		.set	.LANCHOR7,. + 0
 2883              	mode_after_tx:
 2884 0000 00       		.space	1
 2885              		.section	.bss.reg320,"aw",%nobits
 2886              		.set	.LANCHOR11,. + 0
 2889              	reg320:
 2890 0000 00       		.space	1
 2891              		.section	.bss.sx_status,"aw",%nobits
 2892              		.set	.LANCHOR12,. + 0
 2895              	sx_status:
 2896 0000 00       		.space	1
 2897              		.section	.bss.tx_count,"aw",%nobits
 2898              		.align	2
 2899              		.set	.LANCHOR10,. + 0
 2902              	tx_count:
 2903 0000 00000000 		.space	4
 2904              		.section	.bss.tx_reached,"aw",%nobits
 2905              		.set	.LANCHOR8,. + 0
 2908              	tx_reached:
 2909 0000 00       		.space	1
 2910              		.section	.rodata.APPSKEY,"a"
 2911              		.align	2
 2912              		.set	.LANCHOR4,. + 0
 2915              	APPSKEY:
 2916 0000 01020304 		.ascii	"\001\002\003\004\005\006\007\010\011\012\013\014\015"
 2916      05060708 
 2916      090A0B0C 
 2916      0D
ARM GAS  /tmp/ccxe0c4o.s 			page 71


 2917 000d 0E0F10   		.ascii	"\016\017\020"
 2918              		.section	.rodata.NWKSKEY,"a"
 2919              		.align	2
 2920              		.set	.LANCHOR5,. + 0
 2923              	NWKSKEY:
 2924 0000 00112233 		.ascii	"\000\021\"3DUfw\210\231\252\273\314\335\356\377"
 2924      44556677 
 2924      8899AABB 
 2924      CCDDEEFF 
 2925              		.section	.rodata.aes_rcon,"a"
 2926              		.align	2
 2927              		.set	.LANCHOR3,. + 0
 2930              	aes_rcon:
 2931 0000 00010204 		.ascii	"\000\001\002\004\010\020 @\200\0336"
 2931      08102040 
 2931      801B36
 2932              		.section	.rodata.aes_sbox,"a"
 2933              		.align	2
 2934              		.set	.LANCHOR0,. + 0
 2937              	aes_sbox:
 2938 0000 637C777B 		.ascii	"c|w{\362ko\3050\001g+\376\327\253v\312\202\311}\372"
 2938      F26B6FC5 
 2938      3001672B 
 2938      FED7AB76 
 2938      CA82C97D 
 2939 0015 5947F0AD 		.ascii	"YG\360\255\324\242\257\234\244r\300\267\375\223&6?\367"
 2939      D4A2AF9C 
 2939      A472C0B7 
 2939      FD932636 
 2939      3FF7
 2940 0027 CC34A5E5 		.ascii	"\3144\245\345\361q\3301\025\004\307#\303\030\226\005"
 2940      F171D831 
 2940      1504C723 
 2940      C3189605 
 2941 0037 9A071280 		.ascii	"\232\007\022\200\342\353'\262u\011\203,\032\033nZ\240"
 2941      E2EB27B2 
 2941      7509832C 
 2941      1A1B6E5A 
 2941      A0
 2942 0048 523BD6B3 		.ascii	"R;\326\263)\343/\204S\321\000\355 \374\261[j\313\276"
 2942      29E32F84 
 2942      53D100ED 
 2942      20FCB15B 
 2942      6ACBBE
 2943 005b 394A4C58 		.ascii	"9JLX\317\320\357\252\373CM3\205E\371\002\177P<\237\250"
 2943      CFD0EFAA 
 2943      FB434D33 
 2943      8545F902 
 2943      7F503C9F 
 2944 0070 51A3408F 		.ascii	"Q\243@\217\222\2358\365\274\266\332!\020\377\363\322"
 2944      929D38F5 
 2944      BCB6DA21 
 2944      10FFF3D2 
 2945 0080 CD0C13EC 		.ascii	"\315\014\023\354_\227D\027\304\247~=d]\031s`\201O\334"
 2945      5F974417 
 2945      C4A77E3D 
 2945      645D1973 
ARM GAS  /tmp/ccxe0c4o.s 			page 72


 2945      60814FDC 
 2946 0094 222A9088 		.ascii	"\"*\220\210F\356\270\024\336^\013\333\3402:\012I\006"
 2946      46EEB814 
 2946      DE5E0BDB 
 2946      E0323A0A 
 2946      4906
 2947 00a6 245CC2D3 		.ascii	"$\\\302\323\254b\221\225\344y\347\3107m\215\325N\251"
 2947      AC629195 
 2947      E479E7C8 
 2947      376D8DD5 
 2947      4EA9
 2948 00b8 6C56F4EA 		.ascii	"lV\364\352ez\256\010\272x%.\034\246\264\306\350\335"
 2948      657AAE08 
 2948      BA78252E 
 2948      1CA6B4C6 
 2948      E8DD
 2949 00ca 741F4BBD 		.ascii	"t\037K\275\213\212p>\265fH\003\366\016a5W\271\206\301"
 2949      8B8A703E 
 2949      B5664803 
 2949      F60E6135 
 2949      57B986C1 
 2950 00de 1D9EE1F8 		.ascii	"\035\236\341\370\230\021i\331\216\224\233\036\207\351"
 2950      981169D9 
 2950      8E949B1E 
 2950      87E9
 2951 00ec CE5528DF 		.ascii	"\316U(\337\214\241\211\015\277\346BhA\231-\017\260T"
 2951      8CA1890D 
 2951      BFE64268 
 2951      41992D0F 
 2951      B054
 2952 00fe BB16     		.ascii	"\273\026"
 2953              		.text
 2954              	.Letext0:
 2955              		.file 3 "/usr/lib/gcc/arm-none-eabi/10.3.1/include/stdint.h"
 2956              		.file 4 "Drivers/CMSIS/Device/ST/STM32F1xx/Include/stm32f103xb.h"
 2957              		.file 5 "Drivers/STM32F1xx_HAL_Driver/Inc/stm32f1xx_hal_def.h"
 2958              		.file 6 "Drivers/STM32F1xx_HAL_Driver/Inc/stm32f1xx_hal_rcc.h"
 2959              		.file 7 "Drivers/STM32F1xx_HAL_Driver/Inc/stm32f1xx_hal_rcc_ex.h"
 2960              		.file 8 "Drivers/STM32F1xx_HAL_Driver/Inc/stm32f1xx_hal_gpio.h"
 2961              		.file 9 "Drivers/STM32F1xx_HAL_Driver/Inc/stm32f1xx_hal_dma.h"
 2962              		.file 10 "Drivers/STM32F1xx_HAL_Driver/Inc/stm32f1xx_hal_spi.h"
 2963              		.file 11 "Drivers/STM32F1xx_HAL_Driver/Inc/stm32f1xx_hal.h"
 2964              		.file 12 "<built-in>"
ARM GAS  /tmp/ccxe0c4o.s 			page 73


DEFINED SYMBOLS
                            *ABS*:0000000000000000 main.c
     /tmp/ccxe0c4o.s:16     .text.xtime:0000000000000000 $t
     /tmp/ccxe0c4o.s:23     .text.xtime:0000000000000000 xtime
     /tmp/ccxe0c4o.s:46     .text.aes_encrypt_block:0000000000000000 $t
     /tmp/ccxe0c4o.s:52     .text.aes_encrypt_block:0000000000000000 aes_encrypt_block
     /tmp/ccxe0c4o.s:461    .text.aes_encrypt_block:0000000000000164 $d
     /tmp/ccxe0c4o.s:466    .text.leftshift_onebit:0000000000000000 $t
     /tmp/ccxe0c4o.s:472    .text.leftshift_onebit:0000000000000000 leftshift_onebit
     /tmp/ccxe0c4o.s:524    .text.cmac_subkey:0000000000000000 $t
     /tmp/ccxe0c4o.s:530    .text.cmac_subkey:0000000000000000 cmac_subkey
     /tmp/ccxe0c4o.s:615    .text.busy:0000000000000000 $t
     /tmp/ccxe0c4o.s:621    .text.busy:0000000000000000 busy
     /tmp/ccxe0c4o.s:642    .text.sx_reset:0000000000000000 $t
     /tmp/ccxe0c4o.s:648    .text.sx_reset:0000000000000000 sx_reset
     /tmp/ccxe0c4o.s:691    .text.sx_reset:0000000000000030 $d
     /tmp/ccxe0c4o.s:697    .text.MX_GPIO_Init:0000000000000000 $t
     /tmp/ccxe0c4o.s:703    .text.MX_GPIO_Init:0000000000000000 MX_GPIO_Init
     /tmp/ccxe0c4o.s:870    .text.MX_GPIO_Init:00000000000000cc $d
     /tmp/ccxe0c4o.s:878    .text.sx_cmd:0000000000000000 $t
     /tmp/ccxe0c4o.s:884    .text.sx_cmd:0000000000000000 sx_cmd
     /tmp/ccxe0c4o.s:942    .text.sx_cmd:0000000000000038 $d
     /tmp/ccxe0c4o.s:948    .text.sx_readreg:0000000000000000 $t
     /tmp/ccxe0c4o.s:954    .text.sx_readreg:0000000000000000 sx_readreg
     /tmp/ccxe0c4o.s:1003   .text.sx_chipmode:0000000000000000 $t
     /tmp/ccxe0c4o.s:1009   .text.sx_chipmode:0000000000000000 sx_chipmode
     /tmp/ccxe0c4o.s:1050   .rodata.sx_radio_config.str1.4:0000000000000000 $d
     /tmp/ccxe0c4o.s:1066   .text.sx_radio_config:0000000000000000 $t
     /tmp/ccxe0c4o.s:1072   .text.sx_radio_config:0000000000000000 sx_radio_config
     /tmp/ccxe0c4o.s:1306   .text.sx_radio_config:000000000000014c $d
     /tmp/ccxe0c4o.s:1316   .text.aes_key_expand:0000000000000000 $t
     /tmp/ccxe0c4o.s:1322   .text.aes_key_expand:0000000000000000 aes_key_expand
     /tmp/ccxe0c4o.s:1476   .text.aes_key_expand:00000000000000a4 $d
     /tmp/ccxe0c4o.s:1482   .text.lorawan_encrypt_payload:0000000000000000 $t
     /tmp/ccxe0c4o.s:1488   .text.lorawan_encrypt_payload:0000000000000000 lorawan_encrypt_payload
     /tmp/ccxe0c4o.s:1670   .text.aes_cmac:0000000000000000 $t
     /tmp/ccxe0c4o.s:1676   .text.aes_cmac:0000000000000000 aes_cmac
     /tmp/ccxe0c4o.s:1976   .text.lorawan_compute_mic:0000000000000000 $t
     /tmp/ccxe0c4o.s:1982   .text.lorawan_compute_mic:0000000000000000 lorawan_compute_mic
     /tmp/ccxe0c4o.s:2080   .text.lorawan_build_uplink:0000000000000000 $t
     /tmp/ccxe0c4o.s:2086   .text.lorawan_build_uplink:0000000000000000 lorawan_build_uplink
     /tmp/ccxe0c4o.s:2215   .text.lorawan_build_uplink:000000000000008c $d
     /tmp/ccxe0c4o.s:2221   .rodata.sx_send_packet.str1.4:0000000000000000 $d
     /tmp/ccxe0c4o.s:2225   .text.sx_send_packet:0000000000000000 $t
     /tmp/ccxe0c4o.s:2231   .text.sx_send_packet:0000000000000000 sx_send_packet
     /tmp/ccxe0c4o.s:2486   .text.sx_send_packet:0000000000000164 $d
     /tmp/ccxe0c4o.s:2499   .text.Error_Handler:0000000000000000 $t
     /tmp/ccxe0c4o.s:2506   .text.Error_Handler:0000000000000000 Error_Handler
     /tmp/ccxe0c4o.s:2538   .text.MX_SPI1_Init:0000000000000000 $t
     /tmp/ccxe0c4o.s:2544   .text.MX_SPI1_Init:0000000000000000 MX_SPI1_Init
     /tmp/ccxe0c4o.s:2613   .text.MX_SPI1_Init:0000000000000038 $d
     /tmp/ccxe0c4o.s:2619   .text.SystemClock_Config:0000000000000000 $t
     /tmp/ccxe0c4o.s:2626   .text.SystemClock_Config:0000000000000000 SystemClock_Config
     /tmp/ccxe0c4o.s:2719   .text.main:0000000000000000 $t
     /tmp/ccxe0c4o.s:2726   .text.main:0000000000000000 main
     /tmp/ccxe0c4o.s:2836   .text.main:0000000000000084 $d
     /tmp/ccxe0c4o.s:2902   .bss.tx_count:0000000000000000 tx_count
ARM GAS  /tmp/ccxe0c4o.s 			page 74


     /tmp/ccxe0c4o.s:2908   .bss.tx_reached:0000000000000000 tx_reached
     /tmp/ccxe0c4o.s:2883   .bss.mode_after_tx:0000000000000000 mode_after_tx
     /tmp/ccxe0c4o.s:2863   .bss.err_lsb:0000000000000000 err_lsb
     /tmp/ccxe0c4o.s:2889   .bss.reg320:0000000000000000 reg320
     /tmp/ccxe0c4o.s:2895   .bss.sx_status:0000000000000000 sx_status
     /tmp/ccxe0c4o.s:2877   .bss.hspi1:0000000000000000 hspi1
     /tmp/ccxe0c4o.s:2852   .rodata:0000000000000000 $d
     /tmp/ccxe0c4o.s:2864   .bss.err_lsb:0000000000000000 $d
     /tmp/ccxe0c4o.s:2866   .bss.fcnt_up:0000000000000000 $d
     /tmp/ccxe0c4o.s:2870   .bss.fcnt_up:0000000000000000 fcnt_up
     /tmp/ccxe0c4o.s:2873   .bss.hspi1:0000000000000000 $d
     /tmp/ccxe0c4o.s:2884   .bss.mode_after_tx:0000000000000000 $d
     /tmp/ccxe0c4o.s:2890   .bss.reg320:0000000000000000 $d
     /tmp/ccxe0c4o.s:2896   .bss.sx_status:0000000000000000 $d
     /tmp/ccxe0c4o.s:2898   .bss.tx_count:0000000000000000 $d
     /tmp/ccxe0c4o.s:2909   .bss.tx_reached:0000000000000000 $d
     /tmp/ccxe0c4o.s:2911   .rodata.APPSKEY:0000000000000000 $d
     /tmp/ccxe0c4o.s:2915   .rodata.APPSKEY:0000000000000000 APPSKEY
     /tmp/ccxe0c4o.s:2919   .rodata.NWKSKEY:0000000000000000 $d
     /tmp/ccxe0c4o.s:2923   .rodata.NWKSKEY:0000000000000000 NWKSKEY
     /tmp/ccxe0c4o.s:2926   .rodata.aes_rcon:0000000000000000 $d
     /tmp/ccxe0c4o.s:2930   .rodata.aes_rcon:0000000000000000 aes_rcon
     /tmp/ccxe0c4o.s:2933   .rodata.aes_sbox:0000000000000000 $d
     /tmp/ccxe0c4o.s:2937   .rodata.aes_sbox:0000000000000000 aes_sbox

UNDEFINED SYMBOLS
HAL_Delay
HAL_GPIO_WritePin
HAL_GPIO_Init
HAL_SPI_TransmitReceive
memcpy
HAL_SPI_Transmit
HAL_SPI_Init
memset
HAL_RCC_OscConfig
HAL_RCC_ClockConfig
HAL_Init
