ARM GAS  /tmp/ccIqGu1v.s 			page 1


   1              		.cpu cortex-m3
   2              		.eabi_attribute 20, 1
   3              		.eabi_attribute 21, 1
   4              		.eabi_attribute 23, 3
   5              		.eabi_attribute 24, 1
   6              		.eabi_attribute 25, 1
   7              		.eabi_attribute 26, 1
   8              		.eabi_attribute 30, 1
   9              		.eabi_attribute 34, 1
  10              		.eabi_attribute 18, 4
  11              		.file	"SX1262.c"
  12              		.text
  13              	.Ltext0:
  14              		.cfi_sections	.debug_frame
  15              		.section	.text.SX1262_Get_st,"ax",%progbits
  16              		.align	1
  17              		.global	SX1262_Get_st
  18              		.arch armv7-m
  19              		.syntax unified
  20              		.thumb
  21              		.thumb_func
  22              		.fpu softvfp
  24              	SX1262_Get_st:
  25              	.LFB65:
  26              		.file 1 "Core/Src/SX1262.c"
   1:Core/Src/SX1262.c **** /*
   2:Core/Src/SX1262.c ****  * SX1262.c ŌĆö ą┐ąŠą╗ąĮčŗą╣ ą┤čĆą░ą╣ą▓ąĄčĆ ą┤ą╗čÅ LoRaWAN uplink (EU868, SF12BW125)
   3:Core/Src/SX1262.c ****  * ą©ą░ą│ 1: čäąĖąĘąĖčćąĄčüą║ąĖą╣ čāčĆąŠą▓ąĄąĮčī. AES/MIC ą▒čāą┤čāčé ąŠčéą┤ąĄą╗čīąĮčŗą╝ čüą╗ąŠąĄą╝.
   4:Core/Src/SX1262.c ****  * ąæą░ąĘąŠą▓čŗą╣ ą░ą▓čéąŠčĆ: Saba_Abiri, ą┐ąĄčĆąĄčĆą░ą▒ąŠčéą║ą░ ą┐ąŠą┤ Ra-01SH + ChirpStack.
   5:Core/Src/SX1262.c ****  */
   6:Core/Src/SX1262.c **** 
   7:Core/Src/SX1262.c **** #include "SX1262.h"
   8:Core/Src/SX1262.c **** #include "string.h"
   9:Core/Src/SX1262.c **** #include "math.h"
  10:Core/Src/SX1262.c **** 
  11:Core/Src/SX1262.c **** #define XTAL_FREQUENCY (double)32000000
  12:Core/Src/SX1262.c **** #define FREQ_STEP      (double)(XTAL_FREQUENCY / 524288.0)
  13:Core/Src/SX1262.c **** 
  14:Core/Src/SX1262.c **** SX1262 SX_stc = {0};
  15:Core/Src/SX1262.c **** uint8_t inReceiveMode = 0;
  16:Core/Src/SX1262.c **** volatile uint8_t Status_Now = 0;
  17:Core/Src/SX1262.c **** HAL_StatusTypeDef err22 = 0;
  18:Core/Src/SX1262.c **** 
  19:Core/Src/SX1262.c **** /* ---------- ą▒ą░ąĘąŠą▓čŗą╣ ąĮąĖąĘą║ąĖą╣ čāčĆąŠą▓ąĄąĮčī ---------- */
  20:Core/Src/SX1262.c **** 
  21:Core/Src/SX1262.c **** SX1262 *SX1262_Get_st(void) { return(&SX_stc); }
  27              		.loc 1 21 29 view -0
  28              		.cfi_startproc
  29              		@ args = 0, pretend = 0, frame = 0
  30              		@ frame_needed = 0, uses_anonymous_args = 0
  31              		@ link register save eliminated.
  32              		.loc 1 21 31 view .LVU1
  33              		.loc 1 21 48 is_stmt 0 view .LVU2
  34 0000 0048     		ldr	r0, .L2
  35 0002 7047     		bx	lr
  36              	.L3:
  37              		.align	2
ARM GAS  /tmp/ccIqGu1v.s 			page 2


  38              	.L2:
  39 0004 00000000 		.word	.LANCHOR0
  40              		.cfi_endproc
  41              	.LFE65:
  43              		.section	.text.SX1262_CSLow,"ax",%progbits
  44              		.align	1
  45              		.global	SX1262_CSLow
  46              		.syntax unified
  47              		.thumb
  48              		.thumb_func
  49              		.fpu softvfp
  51              	SX1262_CSLow:
  52              	.LFB66:
  22:Core/Src/SX1262.c **** 
  23:Core/Src/SX1262.c **** void SX1262_CSLow(void)  { HAL_GPIO_WritePin(SX_stc.NSS_Port, SX_stc.NSS_Pin_, GPIO_PIN_RESET); }
  53              		.loc 1 23 26 is_stmt 1 view -0
  54              		.cfi_startproc
  55              		@ args = 0, pretend = 0, frame = 0
  56              		@ frame_needed = 0, uses_anonymous_args = 0
  57 0000 08B5     		push	{r3, lr}
  58              	.LCFI0:
  59              		.cfi_def_cfa_offset 8
  60              		.cfi_offset 3, -8
  61              		.cfi_offset 14, -4
  62              		.loc 1 23 28 view .LVU4
  63 0002 044B     		ldr	r3, .L6
  64 0004 0022     		movs	r2, #0
  65 0006 B3F86410 		ldrh	r1, [r3, #100]
  66 000a 186E     		ldr	r0, [r3, #96]
  67 000c FFF7FEFF 		bl	HAL_GPIO_WritePin
  68              	.LVL0:
  69              		.loc 1 23 97 is_stmt 0 view .LVU5
  70 0010 08BD     		pop	{r3, pc}
  71              	.L7:
  72 0012 00BF     		.align	2
  73              	.L6:
  74 0014 00000000 		.word	.LANCHOR0
  75              		.cfi_endproc
  76              	.LFE66:
  78              		.section	.text.SX1262_CSHigh,"ax",%progbits
  79              		.align	1
  80              		.global	SX1262_CSHigh
  81              		.syntax unified
  82              		.thumb
  83              		.thumb_func
  84              		.fpu softvfp
  86              	SX1262_CSHigh:
  87              	.LFB67:
  24:Core/Src/SX1262.c **** void SX1262_CSHigh(void) { HAL_GPIO_WritePin(SX_stc.NSS_Port, SX_stc.NSS_Pin_, GPIO_PIN_SET); }
  88              		.loc 1 24 26 is_stmt 1 view -0
  89              		.cfi_startproc
  90              		@ args = 0, pretend = 0, frame = 0
  91              		@ frame_needed = 0, uses_anonymous_args = 0
  92 0000 08B5     		push	{r3, lr}
  93              	.LCFI1:
  94              		.cfi_def_cfa_offset 8
  95              		.cfi_offset 3, -8
ARM GAS  /tmp/ccIqGu1v.s 			page 3


  96              		.cfi_offset 14, -4
  97              		.loc 1 24 28 view .LVU7
  98 0002 044B     		ldr	r3, .L10
  99 0004 0122     		movs	r2, #1
 100 0006 B3F86410 		ldrh	r1, [r3, #100]
 101 000a 186E     		ldr	r0, [r3, #96]
 102 000c FFF7FEFF 		bl	HAL_GPIO_WritePin
 103              	.LVL1:
 104              		.loc 1 24 95 is_stmt 0 view .LVU8
 105 0010 08BD     		pop	{r3, pc}
 106              	.L11:
 107 0012 00BF     		.align	2
 108              	.L10:
 109 0014 00000000 		.word	.LANCHOR0
 110              		.cfi_endproc
 111              	.LFE67:
 113              		.section	.text.SX1262_IsBusy,"ax",%progbits
 114              		.align	1
 115              		.global	SX1262_IsBusy
 116              		.syntax unified
 117              		.thumb
 118              		.thumb_func
 119              		.fpu softvfp
 121              	SX1262_IsBusy:
 122              	.LFB68:
  25:Core/Src/SX1262.c **** 
  26:Core/Src/SX1262.c **** int SX1262_IsBusy(void) { return 0; }
 123              		.loc 1 26 25 is_stmt 1 view -0
 124              		.cfi_startproc
 125              		@ args = 0, pretend = 0, frame = 0
 126              		@ frame_needed = 0, uses_anonymous_args = 0
 127              		@ link register save eliminated.
 128              		.loc 1 26 27 view .LVU10
 129              		.loc 1 26 37 is_stmt 0 view .LVU11
 130 0000 0020     		movs	r0, #0
 131 0002 7047     		bx	lr
 132              		.cfi_endproc
 133              	.LFE68:
 135              		.section	.text.SX1262_BusyWait,"ax",%progbits
 136              		.align	1
 137              		.global	SX1262_BusyWait
 138              		.syntax unified
 139              		.thumb
 140              		.thumb_func
 141              		.fpu softvfp
 143              	SX1262_BusyWait:
 144              	.LFB69:
  27:Core/Src/SX1262.c **** 
  28:Core/Src/SX1262.c **** /* ąĪąŠčäčé-ąĘą░ą╝ąĄąĮą░ BUSY: ąĮą░ čéą▓ąŠąĄą╣ ą┐ą╗ą░čéąĄ ą┐ąĖąĮ ąĮąĄ čĆą░ąĘą▓ąĄą┤čæąĮ, ą┐ąŠčŹčéąŠą
  29:Core/Src/SX1262.c **** void SX1262_BusyWait(void)
  30:Core/Src/SX1262.c **** {
 145              		.loc 1 30 1 is_stmt 1 view -0
 146              		.cfi_startproc
 147              		@ args = 0, pretend = 0, frame = 0
 148              		@ frame_needed = 0, uses_anonymous_args = 0
 149 0000 08B5     		push	{r3, lr}
 150              	.LCFI2:
ARM GAS  /tmp/ccIqGu1v.s 			page 4


 151              		.cfi_def_cfa_offset 8
 152              		.cfi_offset 3, -8
 153              		.cfi_offset 14, -4
  31:Core/Src/SX1262.c ****     HAL_Delay(5);
 154              		.loc 1 31 5 view .LVU13
 155 0002 0520     		movs	r0, #5
 156 0004 FFF7FEFF 		bl	HAL_Delay
 157              	.LVL2:
  32:Core/Src/SX1262.c **** }
 158              		.loc 1 32 1 is_stmt 0 view .LVU14
 159 0008 08BD     		pop	{r3, pc}
 160              		.cfi_endproc
 161              	.LFE69:
 163              		.section	.text.SX1262_TxWait,"ax",%progbits
 164              		.align	1
 165              		.global	SX1262_TxWait
 166              		.syntax unified
 167              		.thumb
 168              		.thumb_func
 169              		.fpu softvfp
 171              	SX1262_TxWait:
 172              	.LFB70:
  33:Core/Src/SX1262.c **** 
  34:Core/Src/SX1262.c **** void SX1262_TxWait(void) { while(SX_stc.State == RADIO_TX) {} }
 173              		.loc 1 34 26 is_stmt 1 view -0
 174              		.cfi_startproc
 175              		@ args = 0, pretend = 0, frame = 0
 176              		@ frame_needed = 0, uses_anonymous_args = 0
 177              		@ link register save eliminated.
 178              	.L16:
 179              		.loc 1 34 61 discriminator 1 view .LVU16
 180              		.loc 1 34 33 discriminator 1 view .LVU17
 181              		.loc 1 34 40 is_stmt 0 discriminator 1 view .LVU18
 182 0000 024B     		ldr	r3, .L17
 183 0002 93F86E30 		ldrb	r3, [r3, #110]	@ zero_extendqisi2
 184              		.loc 1 34 33 discriminator 1 view .LVU19
 185 0006 022B     		cmp	r3, #2
 186 0008 FAD0     		beq	.L16
 187              		.loc 1 34 63 view .LVU20
 188 000a 7047     		bx	lr
 189              	.L18:
 190              		.align	2
 191              	.L17:
 192 000c 00000000 		.word	.LANCHOR0
 193              		.cfi_endproc
 194              	.LFE70:
 196              		.section	.text.SX1262_Set_Command,"ax",%progbits
 197              		.align	1
 198              		.global	SX1262_Set_Command
 199              		.syntax unified
 200              		.thumb
 201              		.thumb_func
 202              		.fpu softvfp
 204              	SX1262_Set_Command:
 205              	.LVL3:
 206              	.LFB71:
  35:Core/Src/SX1262.c **** 
ARM GAS  /tmp/ccIqGu1v.s 			page 5


  36:Core/Src/SX1262.c **** void SX1262_Set_Command(uint8_t *cmnd_, uint8_t *ans_, uint16_t Len,
  37:Core/Src/SX1262.c ****                         uint32_t Time_out, uint16_t Delay)
  38:Core/Src/SX1262.c **** {
 207              		.loc 1 38 1 is_stmt 1 view -0
 208              		.cfi_startproc
 209              		@ args = 4, pretend = 0, frame = 0
 210              		@ frame_needed = 0, uses_anonymous_args = 0
 211              		.loc 1 38 1 is_stmt 0 view .LVU22
 212 0000 2DE9F041 		push	{r4, r5, r6, r7, r8, lr}
 213              	.LCFI3:
 214              		.cfi_def_cfa_offset 24
 215              		.cfi_offset 4, -24
 216              		.cfi_offset 5, -20
 217              		.cfi_offset 6, -16
 218              		.cfi_offset 7, -12
 219              		.cfi_offset 8, -8
 220              		.cfi_offset 14, -4
 221 0004 82B0     		sub	sp, sp, #8
 222              	.LCFI4:
 223              		.cfi_def_cfa_offset 32
 224 0006 0446     		mov	r4, r0
 225 0008 0D46     		mov	r5, r1
 226 000a 1646     		mov	r6, r2
 227 000c 1F46     		mov	r7, r3
 228 000e BDF82080 		ldrh	r8, [sp, #32]
  39:Core/Src/SX1262.c ****     SX1262_BusyWait();
 229              		.loc 1 39 5 is_stmt 1 view .LVU23
 230 0012 FFF7FEFF 		bl	SX1262_BusyWait
 231              	.LVL4:
  40:Core/Src/SX1262.c ****     SX1262_CSLow();
 232              		.loc 1 40 5 view .LVU24
 233 0016 FFF7FEFF 		bl	SX1262_CSLow
 234              	.LVL5:
  41:Core/Src/SX1262.c ****     err22 = HAL_SPI_TransmitReceive(&SX_stc.SPI, cmnd_, ans_, Len, Time_out);
 235              		.loc 1 41 5 view .LVU25
 236              		.loc 1 41 13 is_stmt 0 view .LVU26
 237 001a 0097     		str	r7, [sp]
 238 001c 3346     		mov	r3, r6
 239 001e 2A46     		mov	r2, r5
 240 0020 2146     		mov	r1, r4
 241 0022 0848     		ldr	r0, .L23
 242 0024 FFF7FEFF 		bl	HAL_SPI_TransmitReceive
 243              	.LVL6:
 244              		.loc 1 41 11 view .LVU27
 245 0028 074B     		ldr	r3, .L23+4
 246 002a 1870     		strb	r0, [r3]
  42:Core/Src/SX1262.c ****     SX1262_CSHigh();
 247              		.loc 1 42 5 is_stmt 1 view .LVU28
 248 002c FFF7FEFF 		bl	SX1262_CSHigh
 249              	.LVL7:
  43:Core/Src/SX1262.c ****     if(Delay) HAL_Delay(Delay);
 250              		.loc 1 43 5 view .LVU29
 251              		.loc 1 43 7 is_stmt 0 view .LVU30
 252 0030 B8F1000F 		cmp	r8, #0
 253 0034 02D1     		bne	.L22
 254              	.L19:
  44:Core/Src/SX1262.c **** }
ARM GAS  /tmp/ccIqGu1v.s 			page 6


 255              		.loc 1 44 1 view .LVU31
 256 0036 02B0     		add	sp, sp, #8
 257              	.LCFI5:
 258              		.cfi_remember_state
 259              		.cfi_def_cfa_offset 24
 260              		@ sp needed
 261 0038 BDE8F081 		pop	{r4, r5, r6, r7, r8, pc}
 262              	.LVL8:
 263              	.L22:
 264              	.LCFI6:
 265              		.cfi_restore_state
  43:Core/Src/SX1262.c ****     if(Delay) HAL_Delay(Delay);
 266              		.loc 1 43 15 is_stmt 1 discriminator 1 view .LVU32
 267 003c 4046     		mov	r0, r8
 268 003e FFF7FEFF 		bl	HAL_Delay
 269              	.LVL9:
 270              		.loc 1 44 1 is_stmt 0 discriminator 1 view .LVU33
 271 0042 F8E7     		b	.L19
 272              	.L24:
 273              		.align	2
 274              	.L23:
 275 0044 00000000 		.word	.LANCHOR0
 276 0048 00000000 		.word	.LANCHOR1
 277              		.cfi_endproc
 278              	.LFE71:
 280              		.section	.text.SX1262_getstatus,"ax",%progbits
 281              		.align	1
 282              		.global	SX1262_getstatus
 283              		.syntax unified
 284              		.thumb
 285              		.thumb_func
 286              		.fpu softvfp
 288              	SX1262_getstatus:
 289              	.LFB72:
  45:Core/Src/SX1262.c **** 
  46:Core/Src/SX1262.c **** /* ---------- čüčéą░čéčāčü / ąŠąČąĖą┤ą░ąĮąĖąĄ ---------- */
  47:Core/Src/SX1262.c **** 
  48:Core/Src/SX1262.c **** uint8_t SX1262_getstatus(void)
  49:Core/Src/SX1262.c **** {
 290              		.loc 1 49 1 is_stmt 1 view -0
 291              		.cfi_startproc
 292              		@ args = 0, pretend = 0, frame = 8
 293              		@ frame_needed = 0, uses_anonymous_args = 0
 294 0000 00B5     		push	{lr}
 295              	.LCFI7:
 296              		.cfi_def_cfa_offset 4
 297              		.cfi_offset 14, -4
 298 0002 85B0     		sub	sp, sp, #20
 299              	.LCFI8:
 300              		.cfi_def_cfa_offset 24
  50:Core/Src/SX1262.c ****     uint8_t c[2] = {0xC0, 0x00};
 301              		.loc 1 50 5 view .LVU35
 302              		.loc 1 50 13 is_stmt 0 view .LVU36
 303 0004 C023     		movs	r3, #192
 304 0006 ADF80C30 		strh	r3, [sp, #12]	@ movhi
  51:Core/Src/SX1262.c ****     uint8_t a[2] = {0};
 305              		.loc 1 51 5 is_stmt 1 view .LVU37
ARM GAS  /tmp/ccIqGu1v.s 			page 7


 306              		.loc 1 51 13 is_stmt 0 view .LVU38
 307 000a 0023     		movs	r3, #0
 308 000c ADF80830 		strh	r3, [sp, #8]	@ movhi
  52:Core/Src/SX1262.c ****     SX1262_Set_Command(c, a, 2, 100, 0);
 309              		.loc 1 52 5 is_stmt 1 view .LVU39
 310 0010 0093     		str	r3, [sp]
 311 0012 6423     		movs	r3, #100
 312 0014 0222     		movs	r2, #2
 313 0016 02A9     		add	r1, sp, #8
 314 0018 03A8     		add	r0, sp, #12
 315 001a FFF7FEFF 		bl	SX1262_Set_Command
 316              	.LVL10:
  53:Core/Src/SX1262.c ****     uint8_t chipMode = (a[1] >> 4) & 0x7;
 317              		.loc 1 53 5 view .LVU40
 318              		.loc 1 53 26 is_stmt 0 view .LVU41
 319 001e 9DF80900 		ldrb	r0, [sp, #9]	@ zero_extendqisi2
 320              		.loc 1 53 13 view .LVU42
 321 0022 C0F30210 		ubfx	r0, r0, #4, #3
 322              	.LVL11:
  54:Core/Src/SX1262.c ****     Status_Now = chipMode;
 323              		.loc 1 54 5 is_stmt 1 view .LVU43
 324              		.loc 1 54 16 is_stmt 0 view .LVU44
 325 0026 024B     		ldr	r3, .L27
 326 0028 1870     		strb	r0, [r3]
  55:Core/Src/SX1262.c ****     return(chipMode);
 327              		.loc 1 55 5 is_stmt 1 view .LVU45
  56:Core/Src/SX1262.c **** }
 328              		.loc 1 56 1 is_stmt 0 view .LVU46
 329 002a 05B0     		add	sp, sp, #20
 330              	.LCFI9:
 331              		.cfi_def_cfa_offset 4
 332              		@ sp needed
 333 002c 5DF804FB 		ldr	pc, [sp], #4
 334              	.L28:
 335              		.align	2
 336              	.L27:
 337 0030 00000000 		.word	.LANCHOR2
 338              		.cfi_endproc
 339              	.LFE72:
 341              		.section	.text.SX1262_waitForRadioCommandCompletion,"ax",%progbits
 342              		.align	1
 343              		.global	SX1262_waitForRadioCommandCompletion
 344              		.syntax unified
 345              		.thumb
 346              		.thumb_func
 347              		.fpu softvfp
 349              	SX1262_waitForRadioCommandCompletion:
 350              	.LVL12:
 351              	.LFB73:
  57:Core/Src/SX1262.c **** 
  58:Core/Src/SX1262.c **** uint8_t SX1262_waitForRadioCommandCompletion(uint32_t timeout)
  59:Core/Src/SX1262.c **** {
 352              		.loc 1 59 1 is_stmt 1 view -0
 353              		.cfi_startproc
 354              		@ args = 0, pretend = 0, frame = 8
 355              		@ frame_needed = 0, uses_anonymous_args = 0
 356              		.loc 1 59 1 is_stmt 0 view .LVU48
ARM GAS  /tmp/ccIqGu1v.s 			page 8


 357 0000 30B5     		push	{r4, r5, lr}
 358              	.LCFI10:
 359              		.cfi_def_cfa_offset 12
 360              		.cfi_offset 4, -12
 361              		.cfi_offset 5, -8
 362              		.cfi_offset 14, -4
 363 0002 85B0     		sub	sp, sp, #20
 364              	.LCFI11:
 365              		.cfi_def_cfa_offset 32
 366 0004 0546     		mov	r5, r0
  60:Core/Src/SX1262.c ****     uint32_t startTime = HAL_GetTick();
 367              		.loc 1 60 5 is_stmt 1 view .LVU49
 368              		.loc 1 60 26 is_stmt 0 view .LVU50
 369 0006 FFF7FEFF 		bl	HAL_GetTick
 370              	.LVL13:
 371              		.loc 1 60 26 view .LVU51
 372 000a 0446     		mov	r4, r0
 373              	.LVL14:
  61:Core/Src/SX1262.c ****     uint8_t c[2] = {0xC0, 0x00};
 374              		.loc 1 61 5 is_stmt 1 view .LVU52
 375              		.loc 1 61 13 is_stmt 0 view .LVU53
 376 000c C023     		movs	r3, #192
 377 000e ADF80C30 		strh	r3, [sp, #12]	@ movhi
  62:Core/Src/SX1262.c ****     uint8_t a[2] = {0};
 378              		.loc 1 62 5 is_stmt 1 view .LVU54
 379              		.loc 1 62 13 is_stmt 0 view .LVU55
 380 0012 0023     		movs	r3, #0
 381 0014 ADF80830 		strh	r3, [sp, #8]	@ movhi
 382              	.LVL15:
 383              	.L31:
  63:Core/Src/SX1262.c ****     while (1)
 384              		.loc 1 63 5 is_stmt 1 view .LVU56
 385              	.LBB2:
  64:Core/Src/SX1262.c ****     {
  65:Core/Src/SX1262.c ****         SX1262_Set_Command(c, a, 2, 100, 0);
 386              		.loc 1 65 9 view .LVU57
 387 0018 0023     		movs	r3, #0
 388 001a 0093     		str	r3, [sp]
 389 001c 6423     		movs	r3, #100
 390 001e 0222     		movs	r2, #2
 391 0020 02A9     		add	r1, sp, #8
 392 0022 03A8     		add	r0, sp, #12
 393 0024 FFF7FEFF 		bl	SX1262_Set_Command
 394              	.LVL16:
  66:Core/Src/SX1262.c ****         uint8_t chipMode = (a[1] >> 4) & 0x7;
 395              		.loc 1 66 9 view .LVU58
 396              		.loc 1 66 30 is_stmt 0 view .LVU59
 397 0028 9DF80930 		ldrb	r3, [sp, #9]	@ zero_extendqisi2
 398              		.loc 1 66 17 view .LVU60
 399 002c C3F30213 		ubfx	r3, r3, #4, #3
 400              	.LVL17:
  67:Core/Src/SX1262.c ****         // 0x02 = STBY_RC, 0x03 = STBY_XOSC ŌĆö ąĘąĮą░čćąĖčé TX/ą║ąŠą╝ą░ąĮą┤ą░ ąĘą░ą▓ąĄčĆčłąĖą╗ą░čü
  68:Core/Src/SX1262.c ****         if (chipMode == 0x02 || chipMode == 0x03) return 0;
 401              		.loc 1 68 9 is_stmt 1 view .LVU61
 402              		.loc 1 68 30 is_stmt 0 view .LVU62
 403 0030 023B     		subs	r3, r3, #2
 404              	.LVL18:
ARM GAS  /tmp/ccIqGu1v.s 			page 9


 405              		.loc 1 68 30 view .LVU63
 406 0032 DBB2     		uxtb	r3, r3
 407              	.LVL19:
 408              		.loc 1 68 12 view .LVU64
 409 0034 012B     		cmp	r3, #1
 410 0036 06D9     		bls	.L32
  69:Core/Src/SX1262.c ****         if (HAL_GetTick() - startTime >= timeout) return 1;
 411              		.loc 1 69 9 is_stmt 1 view .LVU65
 412              		.loc 1 69 13 is_stmt 0 view .LVU66
 413 0038 FFF7FEFF 		bl	HAL_GetTick
 414              	.LVL20:
 415              		.loc 1 69 27 view .LVU67
 416 003c 001B     		subs	r0, r0, r4
 417              		.loc 1 69 12 view .LVU68
 418 003e A842     		cmp	r0, r5
 419 0040 EAD3     		bcc	.L31
 420              		.loc 1 69 58 view .LVU69
 421 0042 0120     		movs	r0, #1
 422 0044 00E0     		b	.L30
 423              	.LVL21:
 424              	.L32:
  68:Core/Src/SX1262.c ****         if (HAL_GetTick() - startTime >= timeout) return 1;
 425              		.loc 1 68 58 view .LVU70
 426 0046 0020     		movs	r0, #0
 427              	.LVL22:
 428              	.L30:
  68:Core/Src/SX1262.c ****         if (HAL_GetTick() - startTime >= timeout) return 1;
 429              		.loc 1 68 58 view .LVU71
 430              	.LBE2:
  70:Core/Src/SX1262.c ****     }
  71:Core/Src/SX1262.c **** }
 431              		.loc 1 71 1 view .LVU72
 432 0048 05B0     		add	sp, sp, #20
 433              	.LCFI12:
 434              		.cfi_def_cfa_offset 12
 435              		@ sp needed
 436 004a 30BD     		pop	{r4, r5, pc}
 437              		.loc 1 71 1 view .LVU73
 438              		.cfi_endproc
 439              	.LFE73:
 441              		.section	.text.SX1262_setModeStandby,"ax",%progbits
 442              		.align	1
 443              		.global	SX1262_setModeStandby
 444              		.syntax unified
 445              		.thumb
 446              		.thumb_func
 447              		.fpu softvfp
 449              	SX1262_setModeStandby:
 450              	.LFB74:
  72:Core/Src/SX1262.c **** 
  73:Core/Src/SX1262.c **** void SX1262_setModeStandby(void)
  74:Core/Src/SX1262.c **** {
 451              		.loc 1 74 1 is_stmt 1 view -0
 452              		.cfi_startproc
 453              		@ args = 0, pretend = 0, frame = 8
 454              		@ frame_needed = 0, uses_anonymous_args = 0
 455 0000 00B5     		push	{lr}
ARM GAS  /tmp/ccIqGu1v.s 			page 10


 456              	.LCFI13:
 457              		.cfi_def_cfa_offset 4
 458              		.cfi_offset 14, -4
 459 0002 85B0     		sub	sp, sp, #20
 460              	.LCFI14:
 461              		.cfi_def_cfa_offset 24
  75:Core/Src/SX1262.c ****     uint8_t c[2] = {0x80, 0x00};   // STDBY_RC
 462              		.loc 1 75 5 view .LVU75
 463              		.loc 1 75 13 is_stmt 0 view .LVU76
 464 0004 8023     		movs	r3, #128
 465 0006 ADF80C30 		strh	r3, [sp, #12]	@ movhi
  76:Core/Src/SX1262.c ****     uint8_t a[2] = {0};
 466              		.loc 1 76 5 is_stmt 1 view .LVU77
 467              		.loc 1 76 13 is_stmt 0 view .LVU78
 468 000a 0023     		movs	r3, #0
 469 000c ADF80830 		strh	r3, [sp, #8]	@ movhi
  77:Core/Src/SX1262.c ****     SX1262_Set_Command(c, a, 2, 100, 0);
 470              		.loc 1 77 5 is_stmt 1 view .LVU79
 471 0010 0093     		str	r3, [sp]
 472 0012 6423     		movs	r3, #100
 473 0014 0222     		movs	r2, #2
 474 0016 02A9     		add	r1, sp, #8
 475 0018 03A8     		add	r0, sp, #12
 476 001a FFF7FEFF 		bl	SX1262_Set_Command
 477              	.LVL23:
  78:Core/Src/SX1262.c **** }
 478              		.loc 1 78 1 is_stmt 0 view .LVU80
 479 001e 05B0     		add	sp, sp, #20
 480              	.LCFI15:
 481              		.cfi_def_cfa_offset 4
 482              		@ sp needed
 483 0020 5DF804FB 		ldr	pc, [sp], #4
 484              		.cfi_endproc
 485              	.LFE74:
 487              		.section	.text.SX1262_Check_Correct,"ax",%progbits
 488              		.align	1
 489              		.global	SX1262_Check_Correct
 490              		.syntax unified
 491              		.thumb
 492              		.thumb_func
 493              		.fpu softvfp
 495              	SX1262_Check_Correct:
 496              	.LFB75:
  79:Core/Src/SX1262.c **** 
  80:Core/Src/SX1262.c **** /* ---------- ą┐čĆąŠą▓ąĄčĆą║ą░ čćąĖą┐ą░ ---------- */
  81:Core/Src/SX1262.c **** 
  82:Core/Src/SX1262.c **** uint8_t SX1262_Check_Correct(void)
  83:Core/Src/SX1262.c **** {
 497              		.loc 1 83 1 is_stmt 1 view -0
 498              		.cfi_startproc
 499              		@ args = 0, pretend = 0, frame = 16
 500              		@ frame_needed = 0, uses_anonymous_args = 0
 501 0000 00B5     		push	{lr}
 502              	.LCFI16:
 503              		.cfi_def_cfa_offset 4
 504              		.cfi_offset 14, -4
 505 0002 87B0     		sub	sp, sp, #28
ARM GAS  /tmp/ccIqGu1v.s 			page 11


 506              	.LCFI17:
 507              		.cfi_def_cfa_offset 32
  84:Core/Src/SX1262.c ****     // ą¦čéąĄąĮąĖąĄ ą▓ąĄčĆčüąĖąĖ-čüąĖą│ąĮą░čéčāčĆčŗ ąĖąĘ 0x0320 (čĆą░ą▒ąŠčćąĖą╣ ąŠčéą▓ąĄčé 'S' = 0x
  85:Core/Src/SX1262.c ****     uint8_t c[5] = {0x1D, 0x03, 0x20, 0x00, 0x00};
 508              		.loc 1 85 5 view .LVU82
 509              		.loc 1 85 13 is_stmt 0 view .LVU83
 510 0004 0E4B     		ldr	r3, .L40
 511 0006 93E80300 		ldm	r3, {r0, r1}
 512 000a 0490     		str	r0, [sp, #16]
 513 000c 8DF81410 		strb	r1, [sp, #20]
  86:Core/Src/SX1262.c ****     uint8_t a[5] = {0};
 514              		.loc 1 86 5 is_stmt 1 view .LVU84
 515              		.loc 1 86 13 is_stmt 0 view .LVU85
 516 0010 0023     		movs	r3, #0
 517 0012 0293     		str	r3, [sp, #8]
 518 0014 8DF80C30 		strb	r3, [sp, #12]
  87:Core/Src/SX1262.c ****     SX1262_Set_Command(c, a, 5, 100, 0);
 519              		.loc 1 87 5 is_stmt 1 view .LVU86
 520 0018 0093     		str	r3, [sp]
 521 001a 6423     		movs	r3, #100
 522 001c 0522     		movs	r2, #5
 523 001e 02A9     		add	r1, sp, #8
 524 0020 04A8     		add	r0, sp, #16
 525 0022 FFF7FEFF 		bl	SX1262_Set_Command
 526              	.LVL24:
  88:Core/Src/SX1262.c ****     if(err22) return(2);
 527              		.loc 1 88 5 view .LVU87
 528              		.loc 1 88 8 is_stmt 0 view .LVU88
 529 0026 074B     		ldr	r3, .L40+4
 530 0028 1878     		ldrb	r0, [r3]	@ zero_extendqisi2
 531              		.loc 1 88 7 view .LVU89
 532 002a 38B9     		cbnz	r0, .L38
  89:Core/Src/SX1262.c ****     if(a[4] == 0x53) return(0);
 533              		.loc 1 89 5 is_stmt 1 view .LVU90
 534              		.loc 1 89 9 is_stmt 0 view .LVU91
 535 002c 9DF80C30 		ldrb	r3, [sp, #12]	@ zero_extendqisi2
 536              		.loc 1 89 7 view .LVU92
 537 0030 532B     		cmp	r3, #83
 538 0032 00D0     		beq	.L37
  90:Core/Src/SX1262.c ****     return(1);
 539              		.loc 1 90 11 view .LVU93
 540 0034 0120     		movs	r0, #1
 541              	.L37:
  91:Core/Src/SX1262.c **** }
 542              		.loc 1 91 1 view .LVU94
 543 0036 07B0     		add	sp, sp, #28
 544              	.LCFI18:
 545              		.cfi_remember_state
 546              		.cfi_def_cfa_offset 4
 547              		@ sp needed
 548 0038 5DF804FB 		ldr	pc, [sp], #4
 549              	.L38:
 550              	.LCFI19:
 551              		.cfi_restore_state
  88:Core/Src/SX1262.c ****     if(a[4] == 0x53) return(0);
 552              		.loc 1 88 21 view .LVU95
 553 003c 0220     		movs	r0, #2
ARM GAS  /tmp/ccIqGu1v.s 			page 12


 554 003e FAE7     		b	.L37
 555              	.L41:
 556              		.align	2
 557              	.L40:
 558 0040 00000000 		.word	.LANCHOR3
 559 0044 00000000 		.word	.LANCHOR1
 560              		.cfi_endproc
 561              	.LFE75:
 563              		.section	.rodata.SX1262_Radio_essental_Config.str1.4,"aMS",%progbits,1
 564              		.align	2
 565              	.LC1:
 566 0000 0D074034 		.ascii	"\015\007@4D\000"
 566      4400
 567              		.section	.text.SX1262_Radio_essental_Config,"ax",%progbits
 568              		.align	1
 569              		.global	SX1262_Radio_essental_Config
 570              		.syntax unified
 571              		.thumb
 572              		.thumb_func
 573              		.fpu softvfp
 575              	SX1262_Radio_essental_Config:
 576              	.LFB77:
  92:Core/Src/SX1262.c **** 
  93:Core/Src/SX1262.c **** /* ---------- ąĖąĮąĖčåąĖą░ą╗ąĖąĘą░čåąĖčÅ ---------- */
  94:Core/Src/SX1262.c **** 
  95:Core/Src/SX1262.c **** void SX1262_Init(void)
  96:Core/Src/SX1262.c **** {
  97:Core/Src/SX1262.c ****     SX1262_CSHigh();
  98:Core/Src/SX1262.c **** 
  99:Core/Src/SX1262.c ****     // Hardware reset
 100:Core/Src/SX1262.c ****     HAL_GPIO_WritePin(SX_stc.Reset_Port, SX_stc.Reset_Pin_, GPIO_PIN_RESET);
 101:Core/Src/SX1262.c ****     HAL_Delay(50);
 102:Core/Src/SX1262.c ****     HAL_GPIO_WritePin(SX_stc.Reset_Port, SX_stc.Reset_Pin_, GPIO_PIN_SET);
 103:Core/Src/SX1262.c ****     HAL_Delay(100);
 104:Core/Src/SX1262.c **** 
 105:Core/Src/SX1262.c ****     // Standby RC
 106:Core/Src/SX1262.c ****     uint8_t stb[2] = {0x80, 0x00};
 107:Core/Src/SX1262.c ****     uint8_t a[4] = {0};
 108:Core/Src/SX1262.c ****     SX1262_Set_Command(stb, a, 2, 100, 10);
 109:Core/Src/SX1262.c **** 
 110:Core/Src/SX1262.c ****     // TCXO čćąĄčĆąĄąĘ DIO3: 3.3ąÆ, čéą░ą╣ą╝ą░čāčé čüčéą░čĆčéą░ ~10ą╝čü (0x64 * 15.625us)
 111:Core/Src/SX1262.c ****     uint8_t tcxo[4] = {0x97, 0x07, 0x00, 0x64};
 112:Core/Src/SX1262.c ****     SX1262_Set_Command(tcxo, a, 4, 100, 20);
 113:Core/Src/SX1262.c **** 
 114:Core/Src/SX1262.c ****     // ąÜą░ą╗ąĖą▒čĆąŠą▓ą║ą░ ą▓čüąĄčģ ą▒ą╗ąŠą║ąŠą▓ ą¤ą×ąĪąøąĢ ąĘą░ą┐čāčüą║ą░ TCXO
 115:Core/Src/SX1262.c ****     uint8_t cal[2] = {0x89, 0x7F};
 116:Core/Src/SX1262.c ****     SX1262_Set_Command(cal, a, 2, 100, 20);
 117:Core/Src/SX1262.c **** 
 118:Core/Src/SX1262.c ****     // DC-DC čĆąĄą│čāą╗čÅčéąŠčĆ
 119:Core/Src/SX1262.c ****     uint8_t reg[2] = {0x96, 0x01};
 120:Core/Src/SX1262.c ****     SX1262_Set_Command(reg, a, 2, 100, 10);
 121:Core/Src/SX1262.c **** 
 122:Core/Src/SX1262.c ****     if(SX1262_Check_Correct() == 0)
 123:Core/Src/SX1262.c ****     {
 124:Core/Src/SX1262.c ****         SX1262_Radio_essental_Config();
 125:Core/Src/SX1262.c ****     }
 126:Core/Src/SX1262.c **** }
ARM GAS  /tmp/ccIqGu1v.s 			page 13


 127:Core/Src/SX1262.c **** 
 128:Core/Src/SX1262.c **** /* ---------- ąŠčüąĮąŠą▓ąĮąŠą╣ ą║ąŠąĮčäąĖą│ čĆą░ą┤ąĖąŠčéčĆą░ą║čéą░ ---------- */
 129:Core/Src/SX1262.c **** 
 130:Core/Src/SX1262.c **** void SX1262_Radio_essental_Config(void)
 131:Core/Src/SX1262.c **** {
 577              		.loc 1 131 1 is_stmt 1 view -0
 578              		.cfi_startproc
 579              		@ args = 0, pretend = 0, frame = 32
 580              		@ frame_needed = 0, uses_anonymous_args = 0
 581 0000 F0B5     		push	{r4, r5, r6, r7, lr}
 582              	.LCFI20:
 583              		.cfi_def_cfa_offset 20
 584              		.cfi_offset 4, -20
 585              		.cfi_offset 5, -16
 586              		.cfi_offset 6, -12
 587              		.cfi_offset 7, -8
 588              		.cfi_offset 14, -4
 589 0002 8BB0     		sub	sp, sp, #44
 590              	.LCFI21:
 591              		.cfi_def_cfa_offset 64
 132:Core/Src/SX1262.c ****     uint8_t c[10], a[10];
 592              		.loc 1 132 5 view .LVU97
 133:Core/Src/SX1262.c **** 
 134:Core/Src/SX1262.c ****     // DIO2 čāą┐čĆą░ą▓ą╗čÅąĄčé ą░ąĮčéąĄąĮąĮčŗą╝ RF-čüą▓ąĖčéčćąĄą╝
 135:Core/Src/SX1262.c ****     c[0]=0x9D; c[1]=0x01; SX1262_Set_Command(c,a,2,100,10);
 593              		.loc 1 135 5 view .LVU98
 594              		.loc 1 135 9 is_stmt 0 view .LVU99
 595 0004 9D23     		movs	r3, #157
 596 0006 8DF81C30 		strb	r3, [sp, #28]
 597              		.loc 1 135 16 is_stmt 1 view .LVU100
 598              		.loc 1 135 20 is_stmt 0 view .LVU101
 599 000a 0126     		movs	r6, #1
 600 000c 8DF81D60 		strb	r6, [sp, #29]
 601              		.loc 1 135 27 is_stmt 1 view .LVU102
 602 0010 0A24     		movs	r4, #10
 603 0012 0094     		str	r4, [sp]
 604 0014 6423     		movs	r3, #100
 605 0016 0222     		movs	r2, #2
 606 0018 04A9     		add	r1, sp, #16
 607 001a 07A8     		add	r0, sp, #28
 608 001c FFF7FEFF 		bl	SX1262_Set_Command
 609              	.LVL25:
 136:Core/Src/SX1262.c **** 
 137:Core/Src/SX1262.c ****     // CalibrateImage ą┤ą╗čÅ 863ŌĆō870 ą£ąōčå
 138:Core/Src/SX1262.c ****     c[0]=0x98; c[1]=0xD7; c[2]=0xDB; SX1262_Set_Command(c,a,3,100,10);
 610              		.loc 1 138 5 view .LVU103
 611              		.loc 1 138 9 is_stmt 0 view .LVU104
 612 0020 9823     		movs	r3, #152
 613 0022 8DF81C30 		strb	r3, [sp, #28]
 614              		.loc 1 138 16 is_stmt 1 view .LVU105
 615              		.loc 1 138 20 is_stmt 0 view .LVU106
 616 0026 D723     		movs	r3, #215
 617 0028 8DF81D30 		strb	r3, [sp, #29]
 618              		.loc 1 138 27 is_stmt 1 view .LVU107
 619              		.loc 1 138 31 is_stmt 0 view .LVU108
 620 002c DB23     		movs	r3, #219
 621 002e 8DF81E30 		strb	r3, [sp, #30]
ARM GAS  /tmp/ccIqGu1v.s 			page 14


 622              		.loc 1 138 38 is_stmt 1 view .LVU109
 623 0032 0094     		str	r4, [sp]
 624 0034 6423     		movs	r3, #100
 625 0036 0322     		movs	r2, #3
 626 0038 04A9     		add	r1, sp, #16
 627 003a 07A8     		add	r0, sp, #28
 628 003c FFF7FEFF 		bl	SX1262_Set_Command
 629              	.LVL26:
 139:Core/Src/SX1262.c **** 
 140:Core/Src/SX1262.c ****     // PacketType = LoRa
 141:Core/Src/SX1262.c ****     c[0]=0x8A; c[1]=0x01; SX1262_Set_Command(c,a,2,100,10);
 630              		.loc 1 141 5 view .LVU110
 631              		.loc 1 141 9 is_stmt 0 view .LVU111
 632 0040 8A23     		movs	r3, #138
 633 0042 8DF81C30 		strb	r3, [sp, #28]
 634              		.loc 1 141 16 is_stmt 1 view .LVU112
 635              		.loc 1 141 20 is_stmt 0 view .LVU113
 636 0046 8DF81D60 		strb	r6, [sp, #29]
 637              		.loc 1 141 27 is_stmt 1 view .LVU114
 638 004a 0094     		str	r4, [sp]
 639 004c 6423     		movs	r3, #100
 640 004e 0222     		movs	r2, #2
 641 0050 04A9     		add	r1, sp, #16
 642 0052 07A8     		add	r0, sp, #28
 643 0054 FFF7FEFF 		bl	SX1262_Set_Command
 644              	.LVL27:
 142:Core/Src/SX1262.c **** 
 143:Core/Src/SX1262.c ****     // ą¦ą░čüčéąŠčéą░ 868.1 ą£ąōčå (ą║ą░ąĮą░ą╗ 0 čłą╗čÄąĘą░)
 144:Core/Src/SX1262.c ****     c[0]=0x86; c[1]=0x36; c[2]=0x40; c[3]=0xCC; c[4]=0xCC;
 645              		.loc 1 144 5 view .LVU115
 646              		.loc 1 144 9 is_stmt 0 view .LVU116
 647 0058 8623     		movs	r3, #134
 648 005a 8DF81C30 		strb	r3, [sp, #28]
 649              		.loc 1 144 16 is_stmt 1 view .LVU117
 650              		.loc 1 144 20 is_stmt 0 view .LVU118
 651 005e 3623     		movs	r3, #54
 652 0060 8DF81D30 		strb	r3, [sp, #29]
 653              		.loc 1 144 27 is_stmt 1 view .LVU119
 654              		.loc 1 144 31 is_stmt 0 view .LVU120
 655 0064 4023     		movs	r3, #64
 656 0066 8DF81E30 		strb	r3, [sp, #30]
 657              		.loc 1 144 38 is_stmt 1 view .LVU121
 658              		.loc 1 144 42 is_stmt 0 view .LVU122
 659 006a CC23     		movs	r3, #204
 660 006c 8DF81F30 		strb	r3, [sp, #31]
 661              		.loc 1 144 49 is_stmt 1 view .LVU123
 662              		.loc 1 144 53 is_stmt 0 view .LVU124
 663 0070 8DF82030 		strb	r3, [sp, #32]
 145:Core/Src/SX1262.c ****     SX1262_Set_Command(c,a,5,100,10);
 664              		.loc 1 145 5 is_stmt 1 view .LVU125
 665 0074 0094     		str	r4, [sp]
 666 0076 6423     		movs	r3, #100
 667 0078 0522     		movs	r2, #5
 668 007a 04A9     		add	r1, sp, #16
 669 007c 07A8     		add	r0, sp, #28
 670 007e FFF7FEFF 		bl	SX1262_Set_Command
 671              	.LVL28:
ARM GAS  /tmp/ccIqGu1v.s 			page 15


 146:Core/Src/SX1262.c **** 
 147:Core/Src/SX1262.c ****     // PA config: +22 dBm ą┤ą╗čÅ SX1262 (deviceSel=0)
 148:Core/Src/SX1262.c ****     c[0]=0x95; c[1]=0x04; c[2]=0x07; c[3]=0x00; c[4]=0x01;
 672              		.loc 1 148 5 view .LVU126
 673              		.loc 1 148 9 is_stmt 0 view .LVU127
 674 0082 9523     		movs	r3, #149
 675 0084 8DF81C30 		strb	r3, [sp, #28]
 676              		.loc 1 148 16 is_stmt 1 view .LVU128
 677              		.loc 1 148 20 is_stmt 0 view .LVU129
 678 0088 0427     		movs	r7, #4
 679 008a 8DF81D70 		strb	r7, [sp, #29]
 680              		.loc 1 148 27 is_stmt 1 view .LVU130
 681              		.loc 1 148 31 is_stmt 0 view .LVU131
 682 008e 0723     		movs	r3, #7
 683 0090 8DF81E30 		strb	r3, [sp, #30]
 684              		.loc 1 148 38 is_stmt 1 view .LVU132
 685              		.loc 1 148 42 is_stmt 0 view .LVU133
 686 0094 0025     		movs	r5, #0
 687 0096 8DF81F50 		strb	r5, [sp, #31]
 688              		.loc 1 148 49 is_stmt 1 view .LVU134
 689              		.loc 1 148 53 is_stmt 0 view .LVU135
 690 009a 8DF82060 		strb	r6, [sp, #32]
 149:Core/Src/SX1262.c ****     SX1262_Set_Command(c,a,5,100,10);
 691              		.loc 1 149 5 is_stmt 1 view .LVU136
 692 009e 0094     		str	r4, [sp]
 693 00a0 6423     		movs	r3, #100
 694 00a2 0522     		movs	r2, #5
 695 00a4 04A9     		add	r1, sp, #16
 696 00a6 07A8     		add	r0, sp, #28
 697 00a8 FFF7FEFF 		bl	SX1262_Set_Command
 698              	.LVL29:
 150:Core/Src/SX1262.c **** 
 151:Core/Src/SX1262.c ****     // TX params: 22 dBm, ramp 200us
 152:Core/Src/SX1262.c ****     c[0]=0x8E; c[1]=22; c[2]=0x04; SX1262_Set_Command(c,a,3,100,10);
 699              		.loc 1 152 5 view .LVU137
 700              		.loc 1 152 9 is_stmt 0 view .LVU138
 701 00ac 8E23     		movs	r3, #142
 702 00ae 8DF81C30 		strb	r3, [sp, #28]
 703              		.loc 1 152 16 is_stmt 1 view .LVU139
 704              		.loc 1 152 20 is_stmt 0 view .LVU140
 705 00b2 1623     		movs	r3, #22
 706 00b4 8DF81D30 		strb	r3, [sp, #29]
 707              		.loc 1 152 25 is_stmt 1 view .LVU141
 708              		.loc 1 152 29 is_stmt 0 view .LVU142
 709 00b8 8DF81E70 		strb	r7, [sp, #30]
 710              		.loc 1 152 36 is_stmt 1 view .LVU143
 711 00bc 0094     		str	r4, [sp]
 712 00be 6423     		movs	r3, #100
 713 00c0 0322     		movs	r2, #3
 714 00c2 04A9     		add	r1, sp, #16
 715 00c4 07A8     		add	r0, sp, #28
 716 00c6 FFF7FEFF 		bl	SX1262_Set_Command
 717              	.LVL30:
 153:Core/Src/SX1262.c **** 
 154:Core/Src/SX1262.c ****     // ą£ąŠą┤čāą╗čÅčåąĖčÅ: SF12, BW125, CR4/5, LowDataRateOptimize ON
 155:Core/Src/SX1262.c ****     c[0]=0x8B; c[1]=0x0C; c[2]=0x04; c[3]=0x01; c[4]=0x01;
 718              		.loc 1 155 5 view .LVU144
ARM GAS  /tmp/ccIqGu1v.s 			page 16


 719              		.loc 1 155 9 is_stmt 0 view .LVU145
 720 00ca 8B23     		movs	r3, #139
 721 00cc 8DF81C30 		strb	r3, [sp, #28]
 722              		.loc 1 155 16 is_stmt 1 view .LVU146
 723              		.loc 1 155 20 is_stmt 0 view .LVU147
 724 00d0 0C23     		movs	r3, #12
 725 00d2 8DF81D30 		strb	r3, [sp, #29]
 726              		.loc 1 155 27 is_stmt 1 view .LVU148
 727              		.loc 1 155 31 is_stmt 0 view .LVU149
 728 00d6 8DF81E70 		strb	r7, [sp, #30]
 729              		.loc 1 155 38 is_stmt 1 view .LVU150
 730              		.loc 1 155 42 is_stmt 0 view .LVU151
 731 00da 8DF81F60 		strb	r6, [sp, #31]
 732              		.loc 1 155 49 is_stmt 1 view .LVU152
 733              		.loc 1 155 53 is_stmt 0 view .LVU153
 734 00de 8DF82060 		strb	r6, [sp, #32]
 156:Core/Src/SX1262.c ****     SX1262_Set_Command(c,a,5,100,10);
 735              		.loc 1 156 5 is_stmt 1 view .LVU154
 736 00e2 0094     		str	r4, [sp]
 737 00e4 6423     		movs	r3, #100
 738 00e6 0522     		movs	r2, #5
 739 00e8 04A9     		add	r1, sp, #16
 740 00ea 07A8     		add	r0, sp, #28
 741 00ec FFF7FEFF 		bl	SX1262_Set_Command
 742              	.LVL31:
 157:Core/Src/SX1262.c **** 
 158:Core/Src/SX1262.c ****     // DIO IRQ: TxDone(bit0) + Timeout(bit9) ąĮą░ DIO1
 159:Core/Src/SX1262.c ****     c[0]=0x08; c[1]=0x00; c[2]=0x02; c[3]=0x00; c[4]=0x02;
 743              		.loc 1 159 5 view .LVU155
 744              		.loc 1 159 9 is_stmt 0 view .LVU156
 745 00f0 0823     		movs	r3, #8
 746 00f2 8DF81C30 		strb	r3, [sp, #28]
 747              		.loc 1 159 16 is_stmt 1 view .LVU157
 748              		.loc 1 159 20 is_stmt 0 view .LVU158
 749 00f6 8DF81D50 		strb	r5, [sp, #29]
 750              		.loc 1 159 27 is_stmt 1 view .LVU159
 751              		.loc 1 159 31 is_stmt 0 view .LVU160
 752 00fa 0223     		movs	r3, #2
 753 00fc 8DF81E30 		strb	r3, [sp, #30]
 754              		.loc 1 159 38 is_stmt 1 view .LVU161
 755              		.loc 1 159 42 is_stmt 0 view .LVU162
 756 0100 8DF81F50 		strb	r5, [sp, #31]
 757              		.loc 1 159 49 is_stmt 1 view .LVU163
 758              		.loc 1 159 53 is_stmt 0 view .LVU164
 759 0104 8DF82030 		strb	r3, [sp, #32]
 160:Core/Src/SX1262.c ****     c[5]=0x00; c[6]=0x00; c[7]=0x00; c[8]=0x00;
 760              		.loc 1 160 5 is_stmt 1 view .LVU165
 761              		.loc 1 160 9 is_stmt 0 view .LVU166
 762 0108 8DF82150 		strb	r5, [sp, #33]
 763              		.loc 1 160 16 is_stmt 1 view .LVU167
 764              		.loc 1 160 20 is_stmt 0 view .LVU168
 765 010c 8DF82250 		strb	r5, [sp, #34]
 766              		.loc 1 160 27 is_stmt 1 view .LVU169
 767              		.loc 1 160 31 is_stmt 0 view .LVU170
 768 0110 8DF82350 		strb	r5, [sp, #35]
 769              		.loc 1 160 38 is_stmt 1 view .LVU171
 770              		.loc 1 160 42 is_stmt 0 view .LVU172
ARM GAS  /tmp/ccIqGu1v.s 			page 17


 771 0114 8DF82450 		strb	r5, [sp, #36]
 161:Core/Src/SX1262.c ****     SX1262_Set_Command(c,a,9,100,10);
 772              		.loc 1 161 5 is_stmt 1 view .LVU173
 773 0118 0094     		str	r4, [sp]
 774 011a 6423     		movs	r3, #100
 775 011c 0922     		movs	r2, #9
 776 011e 04A9     		add	r1, sp, #16
 777 0120 07A8     		add	r0, sp, #28
 778 0122 FFF7FEFF 		bl	SX1262_Set_Command
 779              	.LVL32:
 162:Core/Src/SX1262.c **** 
 163:Core/Src/SX1262.c ****     // ą¤čāą▒ą╗ąĖčćąĮąŠąĄ čüąĖąĮčģčĆąŠčüą╗ąŠą▓ąŠ LoRaWAN 0x3444 (čĆąĄą│ąĖčüčéčĆčŗ 0x0740/0x0741)
 164:Core/Src/SX1262.c ****     uint8_t s[5] = {0x0D, 0x07, 0x40, 0x34, 0x44};
 780              		.loc 1 164 5 view .LVU174
 781              		.loc 1 164 13 is_stmt 0 view .LVU175
 782 0126 074B     		ldr	r3, .L44
 783 0128 93E80300 		ldm	r3, {r0, r1}
 784 012c 0290     		str	r0, [sp, #8]
 785 012e 8DF80C10 		strb	r1, [sp, #12]
 165:Core/Src/SX1262.c ****     SX1262_Set_Command(s,a,5,100,10);
 786              		.loc 1 165 5 is_stmt 1 view .LVU176
 787 0132 0094     		str	r4, [sp]
 788 0134 6423     		movs	r3, #100
 789 0136 0522     		movs	r2, #5
 790 0138 04A9     		add	r1, sp, #16
 791 013a 02A8     		add	r0, sp, #8
 792 013c FFF7FEFF 		bl	SX1262_Set_Command
 793              	.LVL33:
 166:Core/Src/SX1262.c **** }
 794              		.loc 1 166 1 is_stmt 0 view .LVU177
 795 0140 0BB0     		add	sp, sp, #44
 796              	.LCFI22:
 797              		.cfi_def_cfa_offset 20
 798              		@ sp needed
 799 0142 F0BD     		pop	{r4, r5, r6, r7, pc}
 800              	.L45:
 801              		.align	2
 802              	.L44:
 803 0144 00000000 		.word	.LC1
 804              		.cfi_endproc
 805              	.LFE77:
 807              		.section	.text.SX1262_Init,"ax",%progbits
 808              		.align	1
 809              		.global	SX1262_Init
 810              		.syntax unified
 811              		.thumb
 812              		.thumb_func
 813              		.fpu softvfp
 815              	SX1262_Init:
 816              	.LFB76:
  96:Core/Src/SX1262.c ****     SX1262_CSHigh();
 817              		.loc 1 96 1 is_stmt 1 view -0
 818              		.cfi_startproc
 819              		@ args = 0, pretend = 0, frame = 24
 820              		@ frame_needed = 0, uses_anonymous_args = 0
 821 0000 30B5     		push	{r4, r5, lr}
 822              	.LCFI23:
ARM GAS  /tmp/ccIqGu1v.s 			page 18


 823              		.cfi_def_cfa_offset 12
 824              		.cfi_offset 4, -12
 825              		.cfi_offset 5, -8
 826              		.cfi_offset 14, -4
 827 0002 89B0     		sub	sp, sp, #36
 828              	.LCFI24:
 829              		.cfi_def_cfa_offset 48
  97:Core/Src/SX1262.c **** 
 830              		.loc 1 97 5 view .LVU179
 831 0004 FFF7FEFF 		bl	SX1262_CSHigh
 832              	.LVL34:
 100:Core/Src/SX1262.c ****     HAL_Delay(50);
 833              		.loc 1 100 5 view .LVU180
 834 0008 244C     		ldr	r4, .L50
 835 000a 0022     		movs	r2, #0
 836 000c B4F85C10 		ldrh	r1, [r4, #92]
 837 0010 A06D     		ldr	r0, [r4, #88]
 838 0012 FFF7FEFF 		bl	HAL_GPIO_WritePin
 839              	.LVL35:
 101:Core/Src/SX1262.c ****     HAL_GPIO_WritePin(SX_stc.Reset_Port, SX_stc.Reset_Pin_, GPIO_PIN_SET);
 840              		.loc 1 101 5 view .LVU181
 841 0016 3220     		movs	r0, #50
 842 0018 FFF7FEFF 		bl	HAL_Delay
 843              	.LVL36:
 102:Core/Src/SX1262.c ****     HAL_Delay(100);
 844              		.loc 1 102 5 view .LVU182
 845 001c 0122     		movs	r2, #1
 846 001e B4F85C10 		ldrh	r1, [r4, #92]
 847 0022 A06D     		ldr	r0, [r4, #88]
 848 0024 FFF7FEFF 		bl	HAL_GPIO_WritePin
 849              	.LVL37:
 103:Core/Src/SX1262.c **** 
 850              		.loc 1 103 5 view .LVU183
 851 0028 6420     		movs	r0, #100
 852 002a FFF7FEFF 		bl	HAL_Delay
 853              	.LVL38:
 106:Core/Src/SX1262.c ****     uint8_t a[4] = {0};
 854              		.loc 1 106 5 view .LVU184
 106:Core/Src/SX1262.c ****     uint8_t a[4] = {0};
 855              		.loc 1 106 13 is_stmt 0 view .LVU185
 856 002e 8023     		movs	r3, #128
 857 0030 ADF81C30 		strh	r3, [sp, #28]	@ movhi
 107:Core/Src/SX1262.c ****     SX1262_Set_Command(stb, a, 2, 100, 10);
 858              		.loc 1 107 5 is_stmt 1 view .LVU186
 107:Core/Src/SX1262.c ****     SX1262_Set_Command(stb, a, 2, 100, 10);
 859              		.loc 1 107 13 is_stmt 0 view .LVU187
 860 0034 0023     		movs	r3, #0
 861 0036 0693     		str	r3, [sp, #24]
 108:Core/Src/SX1262.c **** 
 862              		.loc 1 108 5 is_stmt 1 view .LVU188
 863 0038 0A24     		movs	r4, #10
 864 003a 0094     		str	r4, [sp]
 865 003c 6423     		movs	r3, #100
 866 003e 0222     		movs	r2, #2
 867 0040 06A9     		add	r1, sp, #24
 868 0042 07A8     		add	r0, sp, #28
 869 0044 FFF7FEFF 		bl	SX1262_Set_Command
ARM GAS  /tmp/ccIqGu1v.s 			page 19


 870              	.LVL39:
 111:Core/Src/SX1262.c ****     SX1262_Set_Command(tcxo, a, 4, 100, 20);
 871              		.loc 1 111 5 view .LVU189
 111:Core/Src/SX1262.c ****     SX1262_Set_Command(tcxo, a, 4, 100, 20);
 872              		.loc 1 111 13 is_stmt 0 view .LVU190
 873 0048 154B     		ldr	r3, .L50+4
 874 004a 0593     		str	r3, [sp, #20]
 112:Core/Src/SX1262.c **** 
 875              		.loc 1 112 5 is_stmt 1 view .LVU191
 876 004c 1425     		movs	r5, #20
 877 004e 0095     		str	r5, [sp]
 878 0050 6423     		movs	r3, #100
 879 0052 0422     		movs	r2, #4
 880 0054 06A9     		add	r1, sp, #24
 881 0056 0DEB0500 		add	r0, sp, r5
 882 005a FFF7FEFF 		bl	SX1262_Set_Command
 883              	.LVL40:
 115:Core/Src/SX1262.c ****     SX1262_Set_Command(cal, a, 2, 100, 20);
 884              		.loc 1 115 5 view .LVU192
 115:Core/Src/SX1262.c ****     SX1262_Set_Command(cal, a, 2, 100, 20);
 885              		.loc 1 115 13 is_stmt 0 view .LVU193
 886 005e 47F68973 		movw	r3, #32649
 887 0062 ADF81030 		strh	r3, [sp, #16]	@ movhi
 116:Core/Src/SX1262.c **** 
 888              		.loc 1 116 5 is_stmt 1 view .LVU194
 889 0066 0095     		str	r5, [sp]
 890 0068 6423     		movs	r3, #100
 891 006a 0222     		movs	r2, #2
 892 006c 06A9     		add	r1, sp, #24
 893 006e 04A8     		add	r0, sp, #16
 894 0070 FFF7FEFF 		bl	SX1262_Set_Command
 895              	.LVL41:
 119:Core/Src/SX1262.c ****     SX1262_Set_Command(reg, a, 2, 100, 10);
 896              		.loc 1 119 5 view .LVU195
 119:Core/Src/SX1262.c ****     SX1262_Set_Command(reg, a, 2, 100, 10);
 897              		.loc 1 119 13 is_stmt 0 view .LVU196
 898 0074 4FF4CB73 		mov	r3, #406
 899 0078 ADF80C30 		strh	r3, [sp, #12]	@ movhi
 120:Core/Src/SX1262.c **** 
 900              		.loc 1 120 5 is_stmt 1 view .LVU197
 901 007c 0094     		str	r4, [sp]
 902 007e 6423     		movs	r3, #100
 903 0080 0222     		movs	r2, #2
 904 0082 06A9     		add	r1, sp, #24
 905 0084 03A8     		add	r0, sp, #12
 906 0086 FFF7FEFF 		bl	SX1262_Set_Command
 907              	.LVL42:
 122:Core/Src/SX1262.c ****     {
 908              		.loc 1 122 5 view .LVU198
 122:Core/Src/SX1262.c ****     {
 909              		.loc 1 122 8 is_stmt 0 view .LVU199
 910 008a FFF7FEFF 		bl	SX1262_Check_Correct
 911              	.LVL43:
 122:Core/Src/SX1262.c ****     {
 912              		.loc 1 122 7 view .LVU200
 913 008e 08B1     		cbz	r0, .L49
 914              	.L46:
ARM GAS  /tmp/ccIqGu1v.s 			page 20


 126:Core/Src/SX1262.c **** 
 915              		.loc 1 126 1 view .LVU201
 916 0090 09B0     		add	sp, sp, #36
 917              	.LCFI25:
 918              		.cfi_remember_state
 919              		.cfi_def_cfa_offset 12
 920              		@ sp needed
 921 0092 30BD     		pop	{r4, r5, pc}
 922              	.L49:
 923              	.LCFI26:
 924              		.cfi_restore_state
 124:Core/Src/SX1262.c ****     }
 925              		.loc 1 124 9 is_stmt 1 view .LVU202
 926 0094 FFF7FEFF 		bl	SX1262_Radio_essental_Config
 927              	.LVL44:
 126:Core/Src/SX1262.c **** 
 928              		.loc 1 126 1 is_stmt 0 view .LVU203
 929 0098 FAE7     		b	.L46
 930              	.L51:
 931 009a 00BF     		.align	2
 932              	.L50:
 933 009c 00000000 		.word	.LANCHOR0
 934 00a0 97070064 		.word	1677723543
 935              		.cfi_endproc
 936              	.LFE76:
 938              		.global	__aeabi_ui2d
 939              		.global	__aeabi_ddiv
 940              		.global	__aeabi_d2uiz
 941              		.section	.text.SX1262_SetFrequency,"ax",%progbits
 942              		.align	1
 943              		.global	SX1262_SetFrequency
 944              		.syntax unified
 945              		.thumb
 946              		.thumb_func
 947              		.fpu softvfp
 949              	SX1262_SetFrequency:
 950              	.LVL45:
 951              	.LFB78:
 167:Core/Src/SX1262.c **** 
 168:Core/Src/SX1262.c **** /* ---------- čćą░čüčéąŠčéą░ ą▓čĆčāčćąĮčāčÄ ---------- */
 169:Core/Src/SX1262.c **** 
 170:Core/Src/SX1262.c **** void SX1262_SetFrequency(uint32_t frequency)
 171:Core/Src/SX1262.c **** {
 952              		.loc 1 171 1 is_stmt 1 view -0
 953              		.cfi_startproc
 954              		@ args = 0, pretend = 0, frame = 16
 955              		@ frame_needed = 0, uses_anonymous_args = 0
 956              		.loc 1 171 1 is_stmt 0 view .LVU205
 957 0000 10B5     		push	{r4, lr}
 958              	.LCFI27:
 959              		.cfi_def_cfa_offset 8
 960              		.cfi_offset 4, -8
 961              		.cfi_offset 14, -4
 962 0002 86B0     		sub	sp, sp, #24
 963              	.LCFI28:
 964              		.cfi_def_cfa_offset 32
 172:Core/Src/SX1262.c ****     uint8_t buf[5], la[5] = {0};
ARM GAS  /tmp/ccIqGu1v.s 			page 21


 965              		.loc 1 172 5 is_stmt 1 view .LVU206
 966              		.loc 1 172 21 is_stmt 0 view .LVU207
 967 0004 0024     		movs	r4, #0
 968 0006 0294     		str	r4, [sp, #8]
 969 0008 8DF80C40 		strb	r4, [sp, #12]
 173:Core/Src/SX1262.c ****     uint32_t freq = (uint32_t)((double)frequency / FREQ_STEP);
 970              		.loc 1 173 5 is_stmt 1 view .LVU208
 971              		.loc 1 173 32 is_stmt 0 view .LVU209
 972 000c FFF7FEFF 		bl	__aeabi_ui2d
 973              	.LVL46:
 974              		.loc 1 173 50 view .LVU210
 975 0010 0FA3     		adr	r3, .L54
 976 0012 D3E90023 		ldrd	r2, [r3]
 977 0016 FFF7FEFF 		bl	__aeabi_ddiv
 978              	.LVL47:
 979              		.loc 1 173 14 view .LVU211
 980 001a FFF7FEFF 		bl	__aeabi_d2uiz
 981              	.LVL48:
 174:Core/Src/SX1262.c ****     buf[0]=0x86;
 982              		.loc 1 174 5 is_stmt 1 view .LVU212
 983              		.loc 1 174 11 is_stmt 0 view .LVU213
 984 001e 8623     		movs	r3, #134
 985 0020 8DF81030 		strb	r3, [sp, #16]
 175:Core/Src/SX1262.c ****     buf[1]=(freq>>24)&0xFF; buf[2]=(freq>>16)&0xFF;
 986              		.loc 1 175 5 is_stmt 1 view .LVU214
 987              		.loc 1 175 17 is_stmt 0 view .LVU215
 988 0024 030E     		lsrs	r3, r0, #24
 989              		.loc 1 175 11 view .LVU216
 990 0026 8DF81130 		strb	r3, [sp, #17]
 991              		.loc 1 175 29 is_stmt 1 view .LVU217
 992              		.loc 1 175 41 is_stmt 0 view .LVU218
 993 002a 030C     		lsrs	r3, r0, #16
 994              		.loc 1 175 35 view .LVU219
 995 002c 8DF81230 		strb	r3, [sp, #18]
 176:Core/Src/SX1262.c ****     buf[3]=(freq>>8)&0xFF;  buf[4]=freq&0xFF;
 996              		.loc 1 176 5 is_stmt 1 view .LVU220
 997              		.loc 1 176 17 is_stmt 0 view .LVU221
 998 0030 030A     		lsrs	r3, r0, #8
 999              		.loc 1 176 11 view .LVU222
 1000 0032 8DF81330 		strb	r3, [sp, #19]
 1001              		.loc 1 176 29 is_stmt 1 view .LVU223
 1002              		.loc 1 176 35 is_stmt 0 view .LVU224
 1003 0036 8DF81400 		strb	r0, [sp, #20]
 177:Core/Src/SX1262.c ****     SX1262_Set_Command(buf, la, 5, 100, 0);
 1004              		.loc 1 177 5 is_stmt 1 view .LVU225
 1005 003a 0094     		str	r4, [sp]
 1006 003c 6423     		movs	r3, #100
 1007 003e 0522     		movs	r2, #5
 1008 0040 02A9     		add	r1, sp, #8
 1009 0042 04A8     		add	r0, sp, #16
 1010              	.LVL49:
 1011              		.loc 1 177 5 is_stmt 0 view .LVU226
 1012 0044 FFF7FEFF 		bl	SX1262_Set_Command
 1013              	.LVL50:
 178:Core/Src/SX1262.c **** }
 1014              		.loc 1 178 1 view .LVU227
 1015 0048 06B0     		add	sp, sp, #24
ARM GAS  /tmp/ccIqGu1v.s 			page 22


 1016              	.LCFI29:
 1017              		.cfi_def_cfa_offset 8
 1018              		@ sp needed
 1019 004a 10BD     		pop	{r4, pc}
 1020              	.L55:
 1021 004c AFF30080 		.align	3
 1022              	.L54:
 1023 0050 00000000 		.word	0
 1024 0054 80844E40 		.word	1078887552
 1025              		.cfi_endproc
 1026              	.LFE78:
 1028              		.section	.rodata.SX1262_TestCW.str1.4,"aMS",%progbits,1
 1029              		.align	2
 1030              	.LC2:
 1031 0000 863640CC 		.ascii	"\2066@\314\314\000"
 1031      CC00
 1032 0006 0000     		.align	2
 1033              	.LC4:
 1034 0008 8E160400 		.ascii	"\216\026\004\000"
 1035              		.section	.text.SX1262_TestCW,"ax",%progbits
 1036              		.align	1
 1037              		.global	SX1262_TestCW
 1038              		.syntax unified
 1039              		.thumb
 1040              		.thumb_func
 1041              		.fpu softvfp
 1043              	SX1262_TestCW:
 1044              	.LFB79:
 179:Core/Src/SX1262.c **** 
 180:Core/Src/SX1262.c **** /* ---------- ąÆąĀąĢą£ąĢąØąØą½ąÖ ąóąĢąĪąó: čćąĖčüčéą░čÅ ąĮąĄčüčāčēą░čÅ ---------- */
 181:Core/Src/SX1262.c **** /* ąÆčŗąĘąŠą▓ąĖ ąŠą┤ąĖąĮ čĆą░ąĘ ą▓ą╝ąĄčüčéąŠ ą┐ąĄčĆąĄą┤ą░čćąĖ. ą¦ąĖą┐ ą▒čāą┤ąĄčé ą╗ąĖčéčī CW ąĮą░ 8
 182:Core/Src/SX1262.c ****    ą¤čĆąŠą▓ąĄčĆčÅą╣ RTL-SDR / čüą┐ąĄą║čéčĆąŠą░ąĮą░ą╗ąĖąĘą░čéąŠčĆąŠą╝. ąØąĄčüčāčēą░čÅ ąĄčüčéčī = TX-
 183:Core/Src/SX1262.c **** void SX1262_TestCW(void)
 184:Core/Src/SX1262.c **** {
 1045              		.loc 1 184 1 is_stmt 1 view -0
 1046              		.cfi_startproc
 1047              		@ args = 0, pretend = 0, frame = 40
 1048              		@ frame_needed = 0, uses_anonymous_args = 0
 1049 0000 10B5     		push	{r4, lr}
 1050              	.LCFI30:
 1051              		.cfi_def_cfa_offset 8
 1052              		.cfi_offset 4, -8
 1053              		.cfi_offset 14, -4
 1054 0002 8CB0     		sub	sp, sp, #48
 1055              	.LCFI31:
 1056              		.cfi_def_cfa_offset 56
 185:Core/Src/SX1262.c ****     uint8_t a[5];
 1057              		.loc 1 185 5 view .LVU229
 186:Core/Src/SX1262.c ****     uint8_t pt[2]={0x8A,0x01};                 SX1262_Set_Command(pt,a,2,100,10);
 1058              		.loc 1 186 5 view .LVU230
 1059              		.loc 1 186 13 is_stmt 0 view .LVU231
 1060 0004 4FF4C573 		mov	r3, #394
 1061 0008 ADF82430 		strh	r3, [sp, #36]	@ movhi
 1062              		.loc 1 186 48 is_stmt 1 view .LVU232
 1063 000c 0A24     		movs	r4, #10
 1064 000e 0094     		str	r4, [sp]
 1065 0010 6423     		movs	r3, #100
ARM GAS  /tmp/ccIqGu1v.s 			page 23


 1066 0012 0222     		movs	r2, #2
 1067 0014 0AA9     		add	r1, sp, #40
 1068 0016 09A8     		add	r0, sp, #36
 1069 0018 FFF7FEFF 		bl	SX1262_Set_Command
 1070              	.LVL51:
 187:Core/Src/SX1262.c ****     uint8_t sw[2]={0x9D,0x01};                 SX1262_Set_Command(sw,a,2,100,10);
 1071              		.loc 1 187 5 view .LVU233
 1072              		.loc 1 187 13 is_stmt 0 view .LVU234
 1073 001c 40F29D13 		movw	r3, #413
 1074 0020 ADF82030 		strh	r3, [sp, #32]	@ movhi
 1075              		.loc 1 187 48 is_stmt 1 view .LVU235
 1076 0024 0094     		str	r4, [sp]
 1077 0026 6423     		movs	r3, #100
 1078 0028 0222     		movs	r2, #2
 1079 002a 0AA9     		add	r1, sp, #40
 1080 002c 08A8     		add	r0, sp, #32
 1081 002e FFF7FEFF 		bl	SX1262_Set_Command
 1082              	.LVL52:
 188:Core/Src/SX1262.c ****     uint8_t fr[5]={0x86,0x36,0x40,0xCC,0xCC};  SX1262_Set_Command(fr,a,5,100,10);
 1083              		.loc 1 188 5 view .LVU236
 1084              		.loc 1 188 13 is_stmt 0 view .LVU237
 1085 0032 1A4B     		ldr	r3, .L58
 1086 0034 93E80300 		ldm	r3, {r0, r1}
 1087 0038 0690     		str	r0, [sp, #24]
 1088 003a 8DF81C10 		strb	r1, [sp, #28]
 1089              		.loc 1 188 48 is_stmt 1 view .LVU238
 1090 003e 0094     		str	r4, [sp]
 1091 0040 6423     		movs	r3, #100
 1092 0042 0522     		movs	r2, #5
 1093 0044 0AA9     		add	r1, sp, #40
 1094 0046 06A8     		add	r0, sp, #24
 1095 0048 FFF7FEFF 		bl	SX1262_Set_Command
 1096              	.LVL53:
 189:Core/Src/SX1262.c ****     uint8_t pa[5]={0x95,0x04,0x07,0x00,0x01};  SX1262_Set_Command(pa,a,5,100,10);
 1097              		.loc 1 189 5 view .LVU239
 1098              		.loc 1 189 13 is_stmt 0 view .LVU240
 1099 004c 144B     		ldr	r3, .L58+4
 1100 004e 93E80300 		ldm	r3, {r0, r1}
 1101 0052 0490     		str	r0, [sp, #16]
 1102 0054 8DF81410 		strb	r1, [sp, #20]
 1103              		.loc 1 189 48 is_stmt 1 view .LVU241
 1104 0058 0094     		str	r4, [sp]
 1105 005a 6423     		movs	r3, #100
 1106 005c 0522     		movs	r2, #5
 1107 005e 0AA9     		add	r1, sp, #40
 1108 0060 04A8     		add	r0, sp, #16
 1109 0062 FFF7FEFF 		bl	SX1262_Set_Command
 1110              	.LVL54:
 190:Core/Src/SX1262.c ****     uint8_t tp[3]={0x8E,22,0x04};              SX1262_Set_Command(tp,a,3,100,10);
 1111              		.loc 1 190 5 view .LVU242
 1112              		.loc 1 190 13 is_stmt 0 view .LVU243
 1113 0066 0F4B     		ldr	r3, .L58+8
 1114 0068 1B68     		ldr	r3, [r3]
 1115 006a ADF80C30 		strh	r3, [sp, #12]	@ movhi
 1116 006e 1B0C     		lsrs	r3, r3, #16
 1117 0070 8DF80E30 		strb	r3, [sp, #14]
 1118              		.loc 1 190 48 is_stmt 1 view .LVU244
ARM GAS  /tmp/ccIqGu1v.s 			page 24


 1119 0074 0094     		str	r4, [sp]
 1120 0076 6423     		movs	r3, #100
 1121 0078 0322     		movs	r2, #3
 1122 007a 0AA9     		add	r1, sp, #40
 1123 007c 03A8     		add	r0, sp, #12
 1124 007e FFF7FEFF 		bl	SX1262_Set_Command
 1125              	.LVL55:
 191:Core/Src/SX1262.c ****     uint8_t cw[1]={0xD1};                      SX1262_Set_Command(cw,a,1,100,0); // SetTxContinuous
 1126              		.loc 1 191 5 view .LVU245
 1127              		.loc 1 191 13 is_stmt 0 view .LVU246
 1128 0082 D123     		movs	r3, #209
 1129 0084 8DF80830 		strb	r3, [sp, #8]
 1130              		.loc 1 191 48 is_stmt 1 view .LVU247
 1131 0088 0023     		movs	r3, #0
 1132 008a 0093     		str	r3, [sp]
 1133 008c 6423     		movs	r3, #100
 1134 008e 0122     		movs	r2, #1
 1135 0090 0AA9     		add	r1, sp, #40
 1136 0092 02A8     		add	r0, sp, #8
 1137 0094 FFF7FEFF 		bl	SX1262_Set_Command
 1138              	.LVL56:
 192:Core/Src/SX1262.c **** }
 1139              		.loc 1 192 1 is_stmt 0 view .LVU248
 1140 0098 0CB0     		add	sp, sp, #48
 1141              	.LCFI32:
 1142              		.cfi_def_cfa_offset 8
 1143              		@ sp needed
 1144 009a 10BD     		pop	{r4, pc}
 1145              	.L59:
 1146              		.align	2
 1147              	.L58:
 1148 009c 00000000 		.word	.LC2
 1149 00a0 08000000 		.word	.LANCHOR3+8
 1150 00a4 08000000 		.word	.LC4
 1151              		.cfi_endproc
 1152              	.LFE79:
 1154              		.section	.rodata.SX1262_Transmit.str1.4,"aMS",%progbits,1
 1155              		.align	2
 1156              	.LC6:
 1157 0000 02FFFF00 		.ascii	"\002\377\377\000"
 1158              		.section	.text.SX1262_Transmit,"ax",%progbits
 1159              		.align	1
 1160              		.global	SX1262_Transmit
 1161              		.syntax unified
 1162              		.thumb
 1163              		.thumb_func
 1164              		.fpu softvfp
 1166              	SX1262_Transmit:
 1167              	.LVL57:
 1168              	.LFB80:
 193:Core/Src/SX1262.c **** 
 194:Core/Src/SX1262.c **** /* ---------- ą┐ąĄčĆąĄą┤ą░čćą░ ą┐ą░ą║ąĄčéą░ ---------- */
 195:Core/Src/SX1262.c **** 
 196:Core/Src/SX1262.c **** void SX1262_Transmit(uint8_t* data, uint8_t len)
 197:Core/Src/SX1262.c **** {
 1169              		.loc 1 197 1 is_stmt 1 view -0
 1170              		.cfi_startproc
ARM GAS  /tmp/ccIqGu1v.s 			page 25


 1171              		@ args = 0, pretend = 0, frame = 304
 1172              		@ frame_needed = 0, uses_anonymous_args = 0
 1173              		.loc 1 197 1 is_stmt 0 view .LVU250
 1174 0000 2DE9F047 		push	{r4, r5, r6, r7, r8, r9, r10, lr}
 1175              	.LCFI33:
 1176              		.cfi_def_cfa_offset 32
 1177              		.cfi_offset 4, -32
 1178              		.cfi_offset 5, -28
 1179              		.cfi_offset 6, -24
 1180              		.cfi_offset 7, -20
 1181              		.cfi_offset 8, -16
 1182              		.cfi_offset 9, -12
 1183              		.cfi_offset 10, -8
 1184              		.cfi_offset 14, -4
 1185 0004 CEB0     		sub	sp, sp, #312
 1186              	.LCFI34:
 1187              		.cfi_def_cfa_offset 344
 1188 0006 8146     		mov	r9, r0
 1189 0008 0F46     		mov	r7, r1
 198:Core/Src/SX1262.c ****     uint8_t a[10];
 1190              		.loc 1 198 5 is_stmt 1 view .LVU251
 199:Core/Src/SX1262.c **** 
 200:Core/Src/SX1262.c ****     // Standby ą┐ąĄčĆąĄą┤ ąĘą░ą│čĆčāąĘą║ąŠą╣
 201:Core/Src/SX1262.c ****     uint8_t stb[2]={0x80,0x00}; SX1262_Set_Command(stb,a,2,100,5);
 1191              		.loc 1 201 5 view .LVU252
 1192              		.loc 1 201 13 is_stmt 0 view .LVU253
 1193 000a 8023     		movs	r3, #128
 1194 000c ADF82831 		strh	r3, [sp, #296]	@ movhi
 1195              		.loc 1 201 33 is_stmt 1 view .LVU254
 1196 0010 0526     		movs	r6, #5
 1197 0012 0096     		str	r6, [sp]
 1198 0014 6423     		movs	r3, #100
 1199 0016 0222     		movs	r2, #2
 1200 0018 4BA9     		add	r1, sp, #300
 1201              	.LVL58:
 1202              		.loc 1 201 33 is_stmt 0 view .LVU255
 1203 001a 4AA8     		add	r0, sp, #296
 1204              	.LVL59:
 1205              		.loc 1 201 33 view .LVU256
 1206 001c FFF7FEFF 		bl	SX1262_Set_Command
 1207              	.LVL60:
 202:Core/Src/SX1262.c **** 
 203:Core/Src/SX1262.c ****     // ąæą░ąĘąŠą▓čŗą╣ ą░ą┤čĆąĄčü ą▒čāčäąĄčĆą░: TX=0x00, RX=0x00
 204:Core/Src/SX1262.c ****     uint8_t bb[3]={0x8F,0x00,0x00}; SX1262_Set_Command(bb,a,3,100,5);
 1208              		.loc 1 204 5 is_stmt 1 view .LVU257
 1209              		.loc 1 204 13 is_stmt 0 view .LVU258
 1210 0020 3D4B     		ldr	r3, .L62
 1211 0022 1B69     		ldr	r3, [r3, #16]
 1212 0024 ADF82431 		strh	r3, [sp, #292]	@ movhi
 1213 0028 1B0C     		lsrs	r3, r3, #16
 1214 002a 8DF82631 		strb	r3, [sp, #294]
 1215              		.loc 1 204 37 is_stmt 1 view .LVU259
 1216 002e 0096     		str	r6, [sp]
 1217 0030 6423     		movs	r3, #100
 1218 0032 0322     		movs	r2, #3
 1219 0034 4BA9     		add	r1, sp, #300
 1220 0036 49A8     		add	r0, sp, #292
ARM GAS  /tmp/ccIqGu1v.s 			page 26


 1221 0038 FFF7FEFF 		bl	SX1262_Set_Command
 1222              	.LVL61:
 205:Core/Src/SX1262.c **** 
 206:Core/Src/SX1262.c ****     // ą¤ą░čĆą░ą╝ąĄčéčĆčŗ ą┐ą░ą║ąĄčéą░ LoRa (6 ą▒ą░ą╣čé):
 207:Core/Src/SX1262.c ****     // preambleMSB, preambleLSB, headerType, payloadLen, CRC, InvertIQ
 208:Core/Src/SX1262.c ****     uint8_t pp[7];
 1223              		.loc 1 208 5 view .LVU260
 209:Core/Src/SX1262.c ****     pp[0]=0x8C;
 1224              		.loc 1 209 5 view .LVU261
 1225              		.loc 1 209 10 is_stmt 0 view .LVU262
 1226 003c 8C23     		movs	r3, #140
 1227 003e 8DF81C31 		strb	r3, [sp, #284]
 210:Core/Src/SX1262.c ****     pp[1]=0x00;     // preamble MSB
 1228              		.loc 1 210 5 is_stmt 1 view .LVU263
 1229              		.loc 1 210 10 is_stmt 0 view .LVU264
 1230 0042 0024     		movs	r4, #0
 1231 0044 8DF81D41 		strb	r4, [sp, #285]
 211:Core/Src/SX1262.c ****     pp[2]=0x08;     // preamble = 8 čüąĖą╝ą▓ąŠą╗ąŠą▓ (čüčéą░ąĮą┤ą░čĆčé LoRaWAN)
 1232              		.loc 1 211 5 is_stmt 1 view .LVU265
 1233              		.loc 1 211 10 is_stmt 0 view .LVU266
 1234 0048 0823     		movs	r3, #8
 1235 004a 8DF81E31 		strb	r3, [sp, #286]
 212:Core/Src/SX1262.c ****     pp[3]=0x00;     // explicit header
 1236              		.loc 1 212 5 is_stmt 1 view .LVU267
 1237              		.loc 1 212 10 is_stmt 0 view .LVU268
 1238 004e 8DF81F41 		strb	r4, [sp, #287]
 213:Core/Src/SX1262.c ****     pp[4]=len;      // payload length
 1239              		.loc 1 213 5 is_stmt 1 view .LVU269
 1240              		.loc 1 213 10 is_stmt 0 view .LVU270
 1241 0052 8DF82071 		strb	r7, [sp, #288]
 214:Core/Src/SX1262.c ****     pp[5]=0x01;     // CRC ON  <-- ą║ą╗čÄčćąĄą▓ą░čÅ ą┐čĆą░ą▓ą║ą░
 1242              		.loc 1 214 5 is_stmt 1 view .LVU271
 1243              		.loc 1 214 10 is_stmt 0 view .LVU272
 1244 0056 4FF0010A 		mov	r10, #1
 1245 005a 8DF821A1 		strb	r10, [sp, #289]
 215:Core/Src/SX1262.c ****     pp[6]=0x00;     // InvertIQ OFF (ą┐čĆą░ą▓ąĖą╗čīąĮąŠ ą┤ą╗čÅ uplink)
 1246              		.loc 1 215 5 is_stmt 1 view .LVU273
 1247              		.loc 1 215 10 is_stmt 0 view .LVU274
 1248 005e 8DF82241 		strb	r4, [sp, #290]
 216:Core/Src/SX1262.c ****     SX1262_Set_Command(pp,a,7,100,5);
 1249              		.loc 1 216 5 is_stmt 1 view .LVU275
 1250 0062 0096     		str	r6, [sp]
 1251 0064 6423     		movs	r3, #100
 1252 0066 0722     		movs	r2, #7
 1253 0068 4BA9     		add	r1, sp, #300
 1254 006a 47A8     		add	r0, sp, #284
 1255 006c FFF7FEFF 		bl	SX1262_Set_Command
 1256              	.LVL62:
 217:Core/Src/SX1262.c **** 
 218:Core/Src/SX1262.c ****     // ąŚą░ą┐ąĖčüčī payload ą▓ FIFO čü ą░ą┤čĆąĄčüą░ 0x00
 219:Core/Src/SX1262.c ****     uint8_t wr_cmd[1]={0x0E};
 1257              		.loc 1 219 5 view .LVU276
 1258              		.loc 1 219 13 is_stmt 0 view .LVU277
 1259 0070 0E23     		movs	r3, #14
 1260 0072 8DF81831 		strb	r3, [sp, #280]
 220:Core/Src/SX1262.c ****     uint8_t addr[1]={0x00};
 1261              		.loc 1 220 5 is_stmt 1 view .LVU278
ARM GAS  /tmp/ccIqGu1v.s 			page 27


 1262              		.loc 1 220 13 is_stmt 0 view .LVU279
 1263 0076 8DF81441 		strb	r4, [sp, #276]
 221:Core/Src/SX1262.c ****     uint8_t dummy[256]={0};
 1264              		.loc 1 221 5 is_stmt 1 view .LVU280
 1265              		.loc 1 221 13 is_stmt 0 view .LVU281
 1266 007a 0594     		str	r4, [sp, #20]
 1267 007c FC22     		movs	r2, #252
 1268 007e 2146     		mov	r1, r4
 1269 0080 06A8     		add	r0, sp, #24
 1270 0082 FFF7FEFF 		bl	memset
 1271              	.LVL63:
 222:Core/Src/SX1262.c ****     SX1262_BusyWait();
 1272              		.loc 1 222 5 is_stmt 1 view .LVU282
 1273 0086 FFF7FEFF 		bl	SX1262_BusyWait
 1274              	.LVL64:
 223:Core/Src/SX1262.c ****     SX1262_CSLow();
 1275              		.loc 1 223 5 view .LVU283
 1276 008a FFF7FEFF 		bl	SX1262_CSLow
 1277              	.LVL65:
 224:Core/Src/SX1262.c ****     HAL_SPI_TransmitReceive(&SX_stc.SPI, wr_cmd, dummy, 1, 100);
 1278              		.loc 1 224 5 view .LVU284
 1279 008e DFF88C80 		ldr	r8, .L62+4
 1280 0092 6425     		movs	r5, #100
 1281 0094 0095     		str	r5, [sp]
 1282 0096 5346     		mov	r3, r10
 1283 0098 05AA     		add	r2, sp, #20
 1284 009a 46A9     		add	r1, sp, #280
 1285 009c 4046     		mov	r0, r8
 1286 009e FFF7FEFF 		bl	HAL_SPI_TransmitReceive
 1287              	.LVL66:
 225:Core/Src/SX1262.c ****     HAL_SPI_TransmitReceive(&SX_stc.SPI, addr,   dummy, 1, 100);
 1288              		.loc 1 225 5 view .LVU285
 1289 00a2 0095     		str	r5, [sp]
 1290 00a4 5346     		mov	r3, r10
 1291 00a6 05AA     		add	r2, sp, #20
 1292 00a8 45A9     		add	r1, sp, #276
 1293 00aa 4046     		mov	r0, r8
 1294 00ac FFF7FEFF 		bl	HAL_SPI_TransmitReceive
 1295              	.LVL67:
 226:Core/Src/SX1262.c ****     HAL_SPI_TransmitReceive(&SX_stc.SPI, data,   dummy, len, 100);
 1296              		.loc 1 226 5 view .LVU286
 1297 00b0 0095     		str	r5, [sp]
 1298 00b2 3B46     		mov	r3, r7
 1299 00b4 05AA     		add	r2, sp, #20
 1300 00b6 4946     		mov	r1, r9
 1301 00b8 4046     		mov	r0, r8
 1302 00ba FFF7FEFF 		bl	HAL_SPI_TransmitReceive
 1303              	.LVL68:
 227:Core/Src/SX1262.c ****     SX1262_CSHigh();
 1304              		.loc 1 227 5 view .LVU287
 1305 00be FFF7FEFF 		bl	SX1262_CSHigh
 1306              	.LVL69:
 228:Core/Src/SX1262.c ****     HAL_Delay(5);
 1307              		.loc 1 228 5 view .LVU288
 1308 00c2 3046     		mov	r0, r6
 1309 00c4 FFF7FEFF 		bl	HAL_Delay
 1310              	.LVL70:
ARM GAS  /tmp/ccIqGu1v.s 			page 28


 229:Core/Src/SX1262.c **** 
 230:Core/Src/SX1262.c ****     // ą×čćąĖčüčéą║ą░ IRQ-čäą╗ą░ą│ąŠą▓
 231:Core/Src/SX1262.c ****     uint8_t clr[3]={0x02,0xFF,0xFF}; SX1262_Set_Command(clr,a,3,100,5);
 1311              		.loc 1 231 5 view .LVU289
 1312              		.loc 1 231 13 is_stmt 0 view .LVU290
 1313 00c8 154B     		ldr	r3, .L62+8
 1314 00ca 1B68     		ldr	r3, [r3]
 1315 00cc ADF81030 		strh	r3, [sp, #16]	@ movhi
 1316 00d0 1B0C     		lsrs	r3, r3, #16
 1317 00d2 8DF81230 		strb	r3, [sp, #18]
 1318              		.loc 1 231 38 is_stmt 1 view .LVU291
 1319 00d6 0096     		str	r6, [sp]
 1320 00d8 2B46     		mov	r3, r5
 1321 00da 0322     		movs	r2, #3
 1322 00dc 4BA9     		add	r1, sp, #300
 1323 00de 04A8     		add	r0, sp, #16
 1324 00e0 FFF7FEFF 		bl	SX1262_Set_Command
 1325              	.LVL71:
 232:Core/Src/SX1262.c **** 
 233:Core/Src/SX1262.c ****     // SetTx, timeout=0 (ą▒ąĄąĘ ą░ą┐ą┐ą░čĆą░čéąĮąŠą│ąŠ čéą░ą╣ą╝ą░čāčéą░)
 234:Core/Src/SX1262.c ****     uint8_t tx[4]={0x83,0x00,0x00,0x00}; SX1262_Set_Command(tx,a,4,100,0);
 1326              		.loc 1 234 5 view .LVU292
 1327              		.loc 1 234 13 is_stmt 0 view .LVU293
 1328 00e4 8323     		movs	r3, #131
 1329 00e6 0393     		str	r3, [sp, #12]
 1330              		.loc 1 234 42 is_stmt 1 view .LVU294
 1331 00e8 0094     		str	r4, [sp]
 1332 00ea 2B46     		mov	r3, r5
 1333 00ec 0422     		movs	r2, #4
 1334 00ee 4BA9     		add	r1, sp, #300
 1335 00f0 03A8     		add	r0, sp, #12
 1336 00f2 FFF7FEFF 		bl	SX1262_Set_Command
 1337              	.LVL72:
 235:Core/Src/SX1262.c **** 
 236:Core/Src/SX1262.c ****     // SF12 + ~15 ą▒ą░ą╣čé Ōēł 1.3 čü Time-on-Air. ą¢ą┤čæą╝ čü ąĘą░ą┐ą░čüąŠą╝.
 237:Core/Src/SX1262.c ****     HAL_Delay(2000);
 1338              		.loc 1 237 5 view .LVU295
 1339 00f6 4FF4FA60 		mov	r0, #2000
 1340 00fa FFF7FEFF 		bl	HAL_Delay
 1341              	.LVL73:
 238:Core/Src/SX1262.c **** 
 239:Core/Src/SX1262.c ****     // ąÆąŠąĘą▓čĆą░čé ą▓ standby
 240:Core/Src/SX1262.c ****     SX1262_Set_Command(stb,a,2,100,5);
 1342              		.loc 1 240 5 view .LVU296
 1343 00fe 0096     		str	r6, [sp]
 1344 0100 2B46     		mov	r3, r5
 1345 0102 0222     		movs	r2, #2
 1346 0104 4BA9     		add	r1, sp, #300
 1347 0106 4AA8     		add	r0, sp, #296
 1348 0108 FFF7FEFF 		bl	SX1262_Set_Command
 1349              	.LVL74:
 241:Core/Src/SX1262.c ****     inReceiveMode = 0;
 1350              		.loc 1 241 5 view .LVU297
 1351              		.loc 1 241 19 is_stmt 0 view .LVU298
 1352 010c 054B     		ldr	r3, .L62+12
 1353 010e 1C70     		strb	r4, [r3]
 242:Core/Src/SX1262.c **** }
ARM GAS  /tmp/ccIqGu1v.s 			page 29


 1354              		.loc 1 242 1 view .LVU299
 1355 0110 4EB0     		add	sp, sp, #312
 1356              	.LCFI35:
 1357              		.cfi_def_cfa_offset 32
 1358              		@ sp needed
 1359 0112 BDE8F087 		pop	{r4, r5, r6, r7, r8, r9, r10, pc}
 1360              	.LVL75:
 1361              	.L63:
 1362              		.loc 1 242 1 view .LVU300
 1363 0116 00BF     		.align	2
 1364              	.L62:
 1365 0118 00000000 		.word	.LANCHOR3
 1366 011c 00000000 		.word	.LANCHOR0
 1367 0120 00000000 		.word	.LC6
 1368 0124 00000000 		.word	.LANCHOR4
 1369              		.cfi_endproc
 1370              	.LFE80:
 1372              		.section	.text.SX1262_setRX,"ax",%progbits
 1373              		.align	1
 1374              		.global	SX1262_setRX
 1375              		.syntax unified
 1376              		.thumb
 1377              		.thumb_func
 1378              		.fpu softvfp
 1380              	SX1262_setRX:
 1381              	.LFB81:
 243:Core/Src/SX1262.c **** 
 244:Core/Src/SX1262.c **** /* ---------- ą┐čĆąĖčæą╝ (ąŠčüčéą░ą▓ą╗ąĄąĮąŠ ą┤ą╗čÅ ą▒čāą┤čāčēąĄą│ąŠ) ---------- */
 245:Core/Src/SX1262.c **** 
 246:Core/Src/SX1262.c **** void SX1262_setRX(void)
 247:Core/Src/SX1262.c **** {
 1382              		.loc 1 247 1 is_stmt 1 view -0
 1383              		.cfi_startproc
 1384              		@ args = 0, pretend = 0, frame = 24
 1385              		@ frame_needed = 0, uses_anonymous_args = 0
 1386 0000 10B5     		push	{r4, lr}
 1387              	.LCFI36:
 1388              		.cfi_def_cfa_offset 8
 1389              		.cfi_offset 4, -8
 1390              		.cfi_offset 14, -4
 1391 0002 88B0     		sub	sp, sp, #32
 1392              	.LCFI37:
 1393              		.cfi_def_cfa_offset 40
 248:Core/Src/SX1262.c ****     uint8_t a[7];
 1394              		.loc 1 248 5 view .LVU302
 249:Core/Src/SX1262.c ****     uint8_t pp[7]={0x8C,0x00,0x08,0x00,0xFF,0x01,0x00};
 1395              		.loc 1 249 5 view .LVU303
 1396              		.loc 1 249 13 is_stmt 0 view .LVU304
 1397 0004 0F4B     		ldr	r3, .L66
 1398 0006 93E80300 		ldm	r3, {r0, r1}
 1399 000a 0490     		str	r0, [sp, #16]
 1400 000c ADF81410 		strh	r1, [sp, #20]	@ movhi
 1401 0010 090C     		lsrs	r1, r1, #16
 1402 0012 8DF81610 		strb	r1, [sp, #22]
 250:Core/Src/SX1262.c ****     SX1262_Set_Command(pp,a,7,100,0);
 1403              		.loc 1 250 5 is_stmt 1 view .LVU305
 1404 0016 0024     		movs	r4, #0
ARM GAS  /tmp/ccIqGu1v.s 			page 30


 1405 0018 0094     		str	r4, [sp]
 1406 001a 6423     		movs	r3, #100
 1407 001c 0722     		movs	r2, #7
 1408 001e 06A9     		add	r1, sp, #24
 1409 0020 04A8     		add	r0, sp, #16
 1410 0022 FFF7FEFF 		bl	SX1262_Set_Command
 1411              	.LVL76:
 251:Core/Src/SX1262.c ****     uint8_t rx[4]={0x82,0xFF,0xFF,0xFF}; // continuous
 1412              		.loc 1 251 5 view .LVU306
 1413              		.loc 1 251 13 is_stmt 0 view .LVU307
 1414 0026 6FF07D03 		mvn	r3, #125
 1415 002a 0393     		str	r3, [sp, #12]
 252:Core/Src/SX1262.c ****     SX1262_Set_Command(rx,a,4,100,0);
 1416              		.loc 1 252 5 is_stmt 1 view .LVU308
 1417 002c 0094     		str	r4, [sp]
 1418 002e 6423     		movs	r3, #100
 1419 0030 0422     		movs	r2, #4
 1420 0032 06A9     		add	r1, sp, #24
 1421 0034 03A8     		add	r0, sp, #12
 1422 0036 FFF7FEFF 		bl	SX1262_Set_Command
 1423              	.LVL77:
 253:Core/Src/SX1262.c ****     inReceiveMode = 1;
 1424              		.loc 1 253 5 view .LVU309
 1425              		.loc 1 253 19 is_stmt 0 view .LVU310
 1426 003a 034B     		ldr	r3, .L66+4
 1427 003c 0122     		movs	r2, #1
 1428 003e 1A70     		strb	r2, [r3]
 254:Core/Src/SX1262.c **** }
 1429              		.loc 1 254 1 view .LVU311
 1430 0040 08B0     		add	sp, sp, #32
 1431              	.LCFI38:
 1432              		.cfi_def_cfa_offset 8
 1433              		@ sp needed
 1434 0042 10BD     		pop	{r4, pc}
 1435              	.L67:
 1436              		.align	2
 1437              	.L66:
 1438 0044 14000000 		.word	.LANCHOR3+20
 1439 0048 00000000 		.word	.LANCHOR4
 1440              		.cfi_endproc
 1441              	.LFE81:
 1443              		.section	.text.SX1262_setModeReceive,"ax",%progbits
 1444              		.align	1
 1445              		.global	SX1262_setModeReceive
 1446              		.syntax unified
 1447              		.thumb
 1448              		.thumb_func
 1449              		.fpu softvfp
 1451              	SX1262_setModeReceive:
 1452              	.LFB82:
 255:Core/Src/SX1262.c **** 
 256:Core/Src/SX1262.c **** void SX1262_setModeReceive(void) { SX1262_setRX(); }
 1453              		.loc 1 256 34 is_stmt 1 view -0
 1454              		.cfi_startproc
 1455              		@ args = 0, pretend = 0, frame = 0
 1456              		@ frame_needed = 0, uses_anonymous_args = 0
 1457 0000 08B5     		push	{r3, lr}
ARM GAS  /tmp/ccIqGu1v.s 			page 31


 1458              	.LCFI39:
 1459              		.cfi_def_cfa_offset 8
 1460              		.cfi_offset 3, -8
 1461              		.cfi_offset 14, -4
 1462              		.loc 1 256 36 view .LVU313
 1463 0002 FFF7FEFF 		bl	SX1262_setRX
 1464              	.LVL78:
 1465              		.loc 1 256 52 is_stmt 0 view .LVU314
 1466 0006 08BD     		pop	{r3, pc}
 1467              		.cfi_endproc
 1468              	.LFE82:
 1470              		.section	.text.SX1262_HandleCallback,"ax",%progbits
 1471              		.align	1
 1472              		.global	SX1262_HandleCallback
 1473              		.syntax unified
 1474              		.thumb
 1475              		.thumb_func
 1476              		.fpu softvfp
 1478              	SX1262_HandleCallback:
 1479              	.LVL79:
 1480              	.LFB83:
 257:Core/Src/SX1262.c **** 
 258:Core/Src/SX1262.c **** void SX1262_HandleCallback(uint8_t *buf, uint8_t *len)
 259:Core/Src/SX1262.c **** {
 1481              		.loc 1 259 1 is_stmt 1 view -0
 1482              		.cfi_startproc
 1483              		@ args = 0, pretend = 0, frame = 528
 1484              		@ frame_needed = 0, uses_anonymous_args = 0
 1485              		.loc 1 259 1 is_stmt 0 view .LVU316
 1486 0000 F0B5     		push	{r4, r5, r6, r7, lr}
 1487              	.LCFI40:
 1488              		.cfi_def_cfa_offset 20
 1489              		.cfi_offset 4, -20
 1490              		.cfi_offset 5, -16
 1491              		.cfi_offset 6, -12
 1492              		.cfi_offset 7, -8
 1493              		.cfi_offset 14, -4
 1494 0002 ADF5077D 		sub	sp, sp, #540
 1495              	.LCFI41:
 1496              		.cfi_def_cfa_offset 560
 1497 0006 0746     		mov	r7, r0
 1498 0008 0E46     		mov	r6, r1
 260:Core/Src/SX1262.c ****     uint8_t bs[4]={0x13,0xFF,0xFF,0xFF};
 1499              		.loc 1 260 5 is_stmt 1 view .LVU317
 1500              		.loc 1 260 13 is_stmt 0 view .LVU318
 1501 000a 6FF0EC03 		mvn	r3, #236
 1502 000e 8593     		str	r3, [sp, #532]
 261:Core/Src/SX1262.c ****     uint8_t ba[4]={0};
 1503              		.loc 1 261 5 is_stmt 1 view .LVU319
 1504              		.loc 1 261 13 is_stmt 0 view .LVU320
 1505 0010 0024     		movs	r4, #0
 1506 0012 8494     		str	r4, [sp, #528]
 262:Core/Src/SX1262.c ****     SX1262_Set_Command(bs,ba,4,100,0);
 1507              		.loc 1 262 5 is_stmt 1 view .LVU321
 1508 0014 0094     		str	r4, [sp]
 1509 0016 6423     		movs	r3, #100
 1510 0018 0422     		movs	r2, #4
ARM GAS  /tmp/ccIqGu1v.s 			page 32


 1511 001a 84A9     		add	r1, sp, #528
 1512              	.LVL80:
 1513              		.loc 1 262 5 is_stmt 0 view .LVU322
 1514 001c 85A8     		add	r0, sp, #532
 1515              	.LVL81:
 1516              		.loc 1 262 5 view .LVU323
 1517 001e FFF7FEFF 		bl	SX1262_Set_Command
 1518              	.LVL82:
 263:Core/Src/SX1262.c ****     uint8_t payloadLen   = ba[2];
 1519              		.loc 1 263 5 is_stmt 1 view .LVU324
 1520              		.loc 1 263 13 is_stmt 0 view .LVU325
 1521 0022 9DF81252 		ldrb	r5, [sp, #530]	@ zero_extendqisi2
 1522              	.LVL83:
 264:Core/Src/SX1262.c ****     uint8_t startAddress = ba[3];
 1523              		.loc 1 264 5 is_stmt 1 view .LVU326
 1524              		.loc 1 264 13 is_stmt 0 view .LVU327
 1525 0026 9DF81332 		ldrb	r3, [sp, #531]	@ zero_extendqisi2
 1526              	.LVL84:
 265:Core/Src/SX1262.c **** 
 266:Core/Src/SX1262.c ****     uint8_t rd[3]={0x1E,startAddress,0x00};
 1527              		.loc 1 266 5 is_stmt 1 view .LVU328
 1528              		.loc 1 266 13 is_stmt 0 view .LVU329
 1529 002a 1E22     		movs	r2, #30
 1530 002c 8DF80C22 		strb	r2, [sp, #524]
 1531 0030 8DF80D32 		strb	r3, [sp, #525]
 1532 0034 8DF80E42 		strb	r4, [sp, #526]
 267:Core/Src/SX1262.c ****     uint8_t out[256]={0};
 1533              		.loc 1 267 5 is_stmt 1 view .LVU330
 1534              		.loc 1 267 13 is_stmt 0 view .LVU331
 1535 0038 4394     		str	r4, [sp, #268]
 1536 003a FC22     		movs	r2, #252
 1537 003c 2146     		mov	r1, r4
 1538 003e 44A8     		add	r0, sp, #272
 1539 0040 FFF7FEFF 		bl	memset
 1540              	.LVL85:
 268:Core/Src/SX1262.c ****     SX1262_BusyWait();
 1541              		.loc 1 268 5 is_stmt 1 view .LVU332
 1542 0044 FFF7FEFF 		bl	SX1262_BusyWait
 1543              	.LVL86:
 269:Core/Src/SX1262.c ****     SX1262_CSLow();
 1544              		.loc 1 269 5 view .LVU333
 1545 0048 FFF7FEFF 		bl	SX1262_CSLow
 1546              	.LVL87:
 270:Core/Src/SX1262.c ****     HAL_SPI_TransmitReceive(&SX_stc.SPI, rd, out, 3, 100);
 1547              		.loc 1 270 5 view .LVU334
 1548 004c 6423     		movs	r3, #100
 1549 004e 0093     		str	r3, [sp]
 1550 0050 0323     		movs	r3, #3
 1551 0052 43AA     		add	r2, sp, #268
 1552 0054 83A9     		add	r1, sp, #524
 1553 0056 0F48     		ldr	r0, .L74
 1554 0058 FFF7FEFF 		bl	HAL_SPI_TransmitReceive
 1555              	.LVL88:
 271:Core/Src/SX1262.c ****     if(payloadLen>0){
 1556              		.loc 1 271 5 view .LVU335
 1557              		.loc 1 271 7 is_stmt 0 view .LVU336
 1558 005c 55B9     		cbnz	r5, .L73
ARM GAS  /tmp/ccIqGu1v.s 			page 33


 1559              	.L71:
 272:Core/Src/SX1262.c ****         uint8_t dummy[256]={0};
 273:Core/Src/SX1262.c ****         HAL_SPI_TransmitReceive(&SX_stc.SPI, dummy, out, payloadLen, 100);
 274:Core/Src/SX1262.c ****     }
 275:Core/Src/SX1262.c ****     SX1262_CSHigh();
 1560              		.loc 1 275 5 is_stmt 1 view .LVU337
 1561 005e FFF7FEFF 		bl	SX1262_CSHigh
 1562              	.LVL89:
 276:Core/Src/SX1262.c ****     memcpy(buf,out,payloadLen);
 1563              		.loc 1 276 5 view .LVU338
 1564 0062 2A46     		mov	r2, r5
 1565 0064 43A9     		add	r1, sp, #268
 1566 0066 3846     		mov	r0, r7
 1567 0068 FFF7FEFF 		bl	memcpy
 1568              	.LVL90:
 277:Core/Src/SX1262.c ****     *len=payloadLen;
 1569              		.loc 1 277 5 view .LVU339
 1570              		.loc 1 277 9 is_stmt 0 view .LVU340
 1571 006c 3570     		strb	r5, [r6]
 278:Core/Src/SX1262.c **** }...
 1572              		.loc 1 278 1 view .LVU341
 1573 006e 0DF5077D 		add	sp, sp, #540
 1574              	.LCFI42:
 1575              		.cfi_remember_state
 1576              		.cfi_def_cfa_offset 20
 1577              		@ sp needed
 1578 0072 F0BD     		pop	{r4, r5, r6, r7, pc}
 1579              	.LVL91:
 1580              	.L73:
 1581              	.LCFI43:
 1582              		.cfi_restore_state
 1583              	.LBB3:
 272:Core/Src/SX1262.c ****         uint8_t dummy[256]={0};
 1584              		.loc 1 272 9 is_stmt 1 view .LVU342
 272:Core/Src/SX1262.c ****         uint8_t dummy[256]={0};
 1585              		.loc 1 272 17 is_stmt 0 view .LVU343
 1586 0074 2146     		mov	r1, r4
 1587 0076 0394     		str	r4, [sp, #12]
 1588 0078 FC22     		movs	r2, #252
 1589 007a 04A8     		add	r0, sp, #16
 1590 007c FFF7FEFF 		bl	memset
 1591              	.LVL92:
 273:Core/Src/SX1262.c ****         HAL_SPI_TransmitReceive(&SX_stc.SPI, dummy, out, payloadLen, 100);
 1592              		.loc 1 273 9 is_stmt 1 view .LVU344
 1593 0080 6423     		movs	r3, #100
 1594 0082 0093     		str	r3, [sp]
 1595 0084 2B46     		mov	r3, r5
 1596 0086 43AA     		add	r2, sp, #268
 1597 0088 03A9     		add	r1, sp, #12
 1598 008a 0248     		ldr	r0, .L74
 1599 008c FFF7FEFF 		bl	HAL_SPI_TransmitReceive
 1600              	.LVL93:
 1601 0090 E5E7     		b	.L71
 1602              	.L75:
 1603 0092 00BF     		.align	2
 1604              	.L74:
 1605 0094 00000000 		.word	.LANCHOR0
ARM GAS  /tmp/ccIqGu1v.s 			page 34


 1606              	.LBE3:
 1607              		.cfi_endproc
 1608              	.LFE83:
 1610              		.global	err22
 1611              		.global	Status_Now
 1612              		.global	inReceiveMode
 1613              		.global	SX_stc
 1614              		.section	.rodata
 1615              		.align	2
 1616              		.set	.LANCHOR3,. + 0
 1617              	.LC0:
 1618 0000 1D032000 		.ascii	"\035\003 \000\000"
 1618      00
 1619 0005 000000   		.space	3
 1620              	.LC3:
 1621 0008 95040700 		.ascii	"\225\004\007\000\001"
 1621      01
 1622 000d 000000   		.space	3
 1623              	.LC5:
 1624 0010 8F0000   		.ascii	"\217\000\000"
 1625 0013 00       		.space	1
 1626              	.LC7:
 1627 0014 8C000800 		.ascii	"\214\000\010\000\377\001\000"
 1627      FF0100
 1628              		.section	.bss.SX_stc,"aw",%nobits
 1629              		.align	2
 1630              		.set	.LANCHOR0,. + 0
 1633              	SX_stc:
 1634 0000 00000000 		.space	972
 1634      00000000 
 1634      00000000 
 1634      00000000 
 1634      00000000 
 1635              		.section	.bss.Status_Now,"aw",%nobits
 1636              		.set	.LANCHOR2,. + 0
 1639              	Status_Now:
 1640 0000 00       		.space	1
 1641              		.section	.bss.err22,"aw",%nobits
 1642              		.set	.LANCHOR1,. + 0
 1645              	err22:
 1646 0000 00       		.space	1
 1647              		.section	.bss.inReceiveMode,"aw",%nobits
 1648              		.set	.LANCHOR4,. + 0
 1651              	inReceiveMode:
 1652 0000 00       		.space	1
 1653              		.text
 1654              	.Letext0:
 1655              		.file 2 "/usr/lib/gcc/arm-none-eabi/10.3.1/include/stdint.h"
 1656              		.file 3 "Drivers/CMSIS/Device/ST/STM32F1xx/Include/stm32f103xb.h"
 1657              		.file 4 "Drivers/STM32F1xx_HAL_Driver/Inc/stm32f1xx_hal_def.h"
 1658              		.file 5 "Drivers/STM32F1xx_HAL_Driver/Inc/stm32f1xx_hal_gpio.h"
 1659              		.file 6 "Drivers/STM32F1xx_HAL_Driver/Inc/stm32f1xx_hal_dma.h"
 1660              		.file 7 "Drivers/STM32F1xx_HAL_Driver/Inc/stm32f1xx_hal_spi.h"
 1661              		.file 8 "Core/Inc/SX1262_Definitions.h"
 1662              		.file 9 "Core/Inc/SX1262.h"
 1663              		.file 10 "<built-in>"
 1664              		.file 11 "Drivers/STM32F1xx_HAL_Driver/Inc/stm32f1xx_hal.h"
ARM GAS  /tmp/ccIqGu1v.s 			page 35


ARM GAS  /tmp/ccIqGu1v.s 			page 36

